Microsoft (R) COFF/PE Dumper Version 14.29.30139.0
Copyright (C) Microsoft Corporation.  All rights reserved.


Dump of file ULDllLoader.dll

File Type: DLL

__security_check_cookie:
  0000000180001000: F0000010  adrp        xip0,__security_cookie
  0000000180001004: 91000210  add         xip0,xip0,#0
  0000000180001008: F9400210  ldr         xip0,[xip0]
  000000018000100C: EB10001F  cmp         x0,xip0
  0000000180001010: 54000041  bne         __gsfailure
  0000000180001014: D65F03C0  ret
__gsfailure:
  0000000180001018: A9BE7BFD  stp         fp,lr,[sp,#-0x20]!
  000000018000101C: 910003FD  mov         fp,sp
  0000000180001020: F0000010  adrp        xip0,__security_cookie
  0000000180001024: 91000210  add         xip0,xip0,#0
  0000000180001028: F0000011  adrp        xip1,__security_cookie
  000000018000102C: 91002231  add         xip1,xip1,#8
  0000000180001030: F9400210  ldr         xip0,[xip0]
  0000000180001034: F9400231  ldr         xip1,[xip1]
  0000000180001038: A90147F0  stp         xip0,xip1,[sp,#0x10]
  000000018000103C: 940003C1  bl          __report_gsfailure
  0000000180001040: D43E0000  brk         #0xF000
  0000000180001044: 00 00 00 00 00 00 00 00 00 00 00 00              ............
__chkstk:
  0000000180001050: F9400A51  ldr         xip1,[xpr,#0x10]
  0000000180001054: EB2F73F0  subs        xip0,sp,x15,lsl #4
  0000000180001058: 9A9033F0  csello      xip0,xzr,xip0
  000000018000105C: EB11021F  cmp         xip0,xip1
  0000000180001060: 54000043  blo         0000000180001068
  0000000180001064: D65F03C0  ret
  0000000180001068: 9274CE10  and         xip0,xip0,#-0x1000
  000000018000106C: D1400631  sub         xip1,xip1,#1,lsl #0xC
  0000000180001070: F940023F  ldr         xzr,[xip1]
  0000000180001074: EB10023F  cmp         xip1,xip0
  0000000180001078: 54FFFFA1  bne         000000018000106C
  000000018000107C: D65F03C0  ret
__security_push_cookie:
  0000000180001080: D10043FF  sub         sp,sp,#0x10
  0000000180001084: F0000011  adrp        xip1,__security_cookie
  0000000180001088: F9400231  ldr         xip1,[xip1]
  000000018000108C: CB3163F1  sub         xip1,sp,xip1
  0000000180001090: F90007F1  str         xip1,[sp,#8]
  0000000180001094: D65F03C0  ret
  0000000180001098: 00 00 00 00 00 00 00 00                          ........
__security_pop_cookie:
  00000001800010A0: F0000011  adrp        xip1,__security_cookie
  00000001800010A4: F94007F0  ldr         xip0,[sp,#8]
  00000001800010A8: F9400231  ldr         xip1,[xip1]
  00000001800010AC: CB3063F0  sub         xip0,sp,xip0
  00000001800010B0: EB11021F  cmp         xip0,xip1
  00000001800010B4: 54000081  bne         00000001800010C4
  00000001800010B8: 910043FF  add         sp,sp,#0x10
  00000001800010BC: D65F03C0  ret
  00000001800010C0: D503201F  nop
  00000001800010C4: AA1003E0  mov         x0,xip0
  00000001800010C8: 14000002  b           __ppgsfailure
  00000001800010CC: 00 00 00 00                                      ....
__ppgsfailure:
  00000001800010D0: A9017BFD  stp         fp,lr,[sp,#0x10]
  00000001800010D4: 910043FD  add         fp,sp,#0x10
  00000001800010D8: 97FFFFCA  bl          __security_check_cookie
  00000001800010DC: A9417BFD  ldp         fp,lr,[sp,#0x10]
  00000001800010E0: D65F03C0  ret
  00000001800010E4: 00 00 00 00                                      ....
DllMain:
  00000001800010E8: 52800020  mov         w0,#1
  00000001800010EC: D65F03C0  ret
ULLoadLibraryA:
  00000001800010F0: A9BA7BFD  stp         fp,lr,[sp,#-0x60]!
  00000001800010F4: A90153F3  stp         x19,x20,[sp,#0x10]
  00000001800010F8: A9025BF5  stp         x21,x22,[sp,#0x20]
  00000001800010FC: A90363F7  stp         x23,x24,[sp,#0x30]
  0000000180001100: A9046BF9  stp         x25,x26,[sp,#0x40]
  0000000180001104: F9002BFB  str         x27,[sp,#0x50]
  0000000180001108: 910003FD  mov         fp,sp
  000000018000110C: 97FFFFDD  bl          __security_push_cookie
  0000000180001110: D280606F  mov         x15,#0x303
  0000000180001114: 97FFFFCF  bl          __chkstk
  0000000180001118: CB2F73FF  sub         sp,sp,x15,lsl #4
  000000018000111C: D0000008  adrp        x8,__imp_CreateFileA
  0000000180001120: F9400108  ldr         x8,[x8]
  0000000180001124: A9017FFF  stp         xzr,xzr,[sp,#0x10]
  0000000180001128: AA0003FB  mov         x27,x0
  000000018000112C: D2800006  mov         x6,#0
  0000000180001130: 52801005  mov         w5,#0x80
  0000000180001134: F90007FB  str         x27,[sp,#8]
  0000000180001138: 52800064  mov         w4,#3
  000000018000113C: D2800003  mov         x3,#0
  0000000180001140: 52800062  mov         w2,#3
  0000000180001144: 52B00001  mov         w1,#0x80000000
  0000000180001148: D2800016  mov         x22,#0
  000000018000114C: D63F0100  blr         x8
  0000000180001150: AA0003FA  mov         x26,x0
  0000000180001154: F90013FA  str         x26,[sp,#0x20]
  0000000180001158: B40042BA  cbz         x26,00000001800019AC
  000000018000115C: D0000008  adrp        x8,__imp_CreateFileA
  0000000180001160: F9400508  ldr         x8,[x8,#8]
  0000000180001164: D2800004  mov         x4,#0
  0000000180001168: 9100A3E3  add         x3,sp,#0x28
  000000018000116C: 52804002  mov         w2,#0x200
  0000000180001170: 9100C3E1  add         x1,sp,#0x30
  0000000180001174: D63F0100  blr         x8
  0000000180001178: D0000008  adrp        x8,__imp_CreateFileA
  000000018000117C: F9400908  ldr         x8,[x8,#0x10]
  0000000180001180: B9406FE1  ldr         w1,[sp,#0x6C]
  0000000180001184: 52800003  mov         w3,#0
  0000000180001188: D2800002  mov         x2,#0
  000000018000118C: AA1A03E0  mov         x0,x26
  0000000180001190: D63F0100  blr         x8
  0000000180001194: D0000008  adrp        x8,__imp_CreateFileA
  0000000180001198: F9400508  ldr         x8,[x8,#8]
  000000018000119C: D2800004  mov         x4,#0
  00000001800011A0: 9100A3E3  add         x3,sp,#0x28
  00000001800011A4: 52820002  mov         w2,#0x1000
  00000001800011A8: 9100C3E1  add         x1,sp,#0x30
  00000001800011AC: AA1A03E0  mov         x0,x26
  00000001800011B0: D63F0100  blr         x8
  00000001800011B4: D0000008  adrp        x8,__imp_CreateFileA
  00000001800011B8: F9400908  ldr         x8,[x8,#0x10]
  00000001800011BC: 52800003  mov         w3,#0
  00000001800011C0: D2800002  mov         x2,#0
  00000001800011C4: 52800001  mov         w1,#0
  00000001800011C8: AA1A03E0  mov         x0,x26
  00000001800011CC: D63F0100  blr         x8
  00000001800011D0: 794093E8  ldrh        w8,[sp,#0x48]
  00000001800011D4: 71042D1F  cmp         w8,#0x10B
  00000001800011D8: 54000061  bne         00000001800011E4
  00000001800011DC: B94067F7  ldr         w23,[sp,#0x64]
  00000001800011E0: 14000004  b           00000001800011F0
  00000001800011E4: 71082D1F  cmp         w8,#0x20B
  00000001800011E8: F94033E8  ldr         x8,[sp,#0x60]
  00000001800011EC: 9A9F0117  cseleq      x23,x8,xzr
  00000001800011F0: B94083E8  ldr         w8,[sp,#0x80]
  00000001800011F4: 52800803  mov         w3,#0x40
  00000001800011F8: 52860002  mov         w2,#0x3000
  00000001800011FC: AA1703E0  mov         x0,x23
  0000000180001200: 11400501  add         w1,w8,#1,lsl #0xC
  0000000180001204: D0000008  adrp        x8,__imp_CreateFileA
  0000000180001208: F9400D08  ldr         x8,[x8,#0x18]
  000000018000120C: D63F0100  blr         x8
  0000000180001210: AA0003F3  mov         x19,x0
  0000000180001214: B5000173  cbnz        x19,0000000180001240
  0000000180001218: B94083E8  ldr         w8,[sp,#0x80]
  000000018000121C: 52800803  mov         w3,#0x40
  0000000180001220: 52860002  mov         w2,#0x3000
  0000000180001224: D2800000  mov         x0,#0
  0000000180001228: 11400501  add         w1,w8,#1,lsl #0xC
  000000018000122C: D0000008  adrp        x8,__imp_CreateFileA
  0000000180001230: F9400D08  ldr         x8,[x8,#0x18]
  0000000180001234: D63F0100  blr         x8
  0000000180001238: AA0003F3  mov         x19,x0
  000000018000123C: B4003B93  cbz         x19,00000001800019AC
  0000000180001240: 9100C3E1  add         x1,sp,#0x30
  0000000180001244: D2820002  mov         x2,#0x1000
  0000000180001248: AA1303E0  mov         x0,x19
  000000018000124C: 94000527  bl          memcpy
  0000000180001250: 794093E8  ldrh        w8,[sp,#0x48]
  0000000180001254: 71042D1F  cmp         w8,#0x10B
  0000000180001258: 540005C1  bne         0000000180001310
  000000018000125C: B94067F7  ldr         w23,[sp,#0x64]
  0000000180001260: D2800015  mov         x21,#0
  0000000180001264: 79406FE9  ldrh        w9,[sp,#0x36]
  0000000180001268: F90003F7  str         x23,[sp]
  000000018000126C: 34000B09  cbz         w9,00000001800013CC
  0000000180001270: 9104A3F4  add         x20,sp,#0x128
  0000000180001274: D0000019  adrp        x25,__imp_CreateFileA
  0000000180001278: D0000018  adrp        x24,__imp_CreateFileA
  000000018000127C: D000001B  adrp        x27,__imp_CreateFileA
  0000000180001280: D0000017  adrp        x23,__imp_CreateFileA
  0000000180001284: B9401681  ldr         w1,[x20,#0x14]
  0000000180001288: 52800003  mov         w3,#0
  000000018000128C: F9400B68  ldr         x8,[x27,#0x10]
  0000000180001290: D2800002  mov         x2,#0
  0000000180001294: AA1A03E0  mov         x0,x26
  0000000180001298: D63F0100  blr         x8
  000000018000129C: 29418A88  ldp         w8,w2,[x20,#0xC]
  00000001800012A0: D2800004  mov         x4,#0
  00000001800012A4: 9100A3E3  add         x3,sp,#0x28
  00000001800012A8: AA1A03E0  mov         x0,x26
  00000001800012AC: 8B284261  add         x1,x19,w8,uxtw #0
  00000001800012B0: F94006E8  ldr         x8,[x23,#8]
  00000001800012B4: D63F0100  blr         x8
  00000001800012B8: 9105E301  add         x1,x24,#0x178
  00000001800012BC: AA1403E0  mov         x0,x20
  00000001800012C0: 9400050D  bl          strcmp
  00000001800012C4: 35000060  cbnz        w0,00000001800012D0
  00000001800012C8: B9400E88  ldr         w8,[x20,#0xC]
  00000001800012CC: 8B284276  add         x22,x19,w8,uxtw #0
  00000001800012D0: 91060321  add         x1,x25,#0x180
  00000001800012D4: AA1403E0  mov         x0,x20
  00000001800012D8: 94000507  bl          strcmp
  00000001800012DC: 350000E0  cbnz        w0,00000001800012F8
  00000001800012E0: B9400E88  ldr         w8,[x20,#0xC]
  00000001800012E4: 8B284278  add         x24,x19,w8,uxtw #0
  00000001800012E8: F9000BF8  str         x24,[sp,#0x10]
  00000001800012EC: B9400A98  ldr         w24,[x20,#8]
  00000001800012F0: F9000FF8  str         x24,[sp,#0x18]
  00000001800012F4: D0000018  adrp        x24,__imp_CreateFileA
  00000001800012F8: 79406FE8  ldrh        w8,[sp,#0x36]
  00000001800012FC: 910006B5  add         x21,x21,#1
  0000000180001300: 9100A294  add         x20,x20,#0x28
  0000000180001304: EB0802BF  cmp         x21,x8
  0000000180001308: 54FFFBE3  blo         0000000180001284
  000000018000130C: 1400002F  b           00000001800013C8
  0000000180001310: 71082D1F  cmp         w8,#0x20B
  0000000180001314: 540005C1  bne         00000001800013CC
  0000000180001318: F94033F7  ldr         x23,[sp,#0x60]
  000000018000131C: D2800015  mov         x21,#0
  0000000180001320: 79406FE8  ldrh        w8,[sp,#0x36]
  0000000180001324: F90003F7  str         x23,[sp]
  0000000180001328: 34000528  cbz         w8,00000001800013CC
  000000018000132C: 9104E3F4  add         x20,sp,#0x138
  0000000180001330: D0000019  adrp        x25,__imp_CreateFileA
  0000000180001334: D0000018  adrp        x24,__imp_CreateFileA
  0000000180001338: D000001B  adrp        x27,__imp_CreateFileA
  000000018000133C: D0000017  adrp        x23,__imp_CreateFileA
  0000000180001340: B9401681  ldr         w1,[x20,#0x14]
  0000000180001344: 52800003  mov         w3,#0
  0000000180001348: F9400B68  ldr         x8,[x27,#0x10]
  000000018000134C: D2800002  mov         x2,#0
  0000000180001350: AA1A03E0  mov         x0,x26
  0000000180001354: D63F0100  blr         x8
  0000000180001358: 29418A88  ldp         w8,w2,[x20,#0xC]
  000000018000135C: D2800004  mov         x4,#0
  0000000180001360: 9100A3E3  add         x3,sp,#0x28
  0000000180001364: AA1A03E0  mov         x0,x26
  0000000180001368: 8B284261  add         x1,x19,w8,uxtw #0
  000000018000136C: F94006E8  ldr         x8,[x23,#8]
  0000000180001370: D63F0100  blr         x8
  0000000180001374: 9105E301  add         x1,x24,#0x178
  0000000180001378: AA1403E0  mov         x0,x20
  000000018000137C: 940004DE  bl          strcmp
  0000000180001380: 35000060  cbnz        w0,000000018000138C
  0000000180001384: B9400E88  ldr         w8,[x20,#0xC]
  0000000180001388: 8B284276  add         x22,x19,w8,uxtw #0
  000000018000138C: 91060321  add         x1,x25,#0x180
  0000000180001390: AA1403E0  mov         x0,x20
  0000000180001394: 940004D8  bl          strcmp
  0000000180001398: 350000E0  cbnz        w0,00000001800013B4
  000000018000139C: B9400E88  ldr         w8,[x20,#0xC]
  00000001800013A0: 8B284278  add         x24,x19,w8,uxtw #0
  00000001800013A4: F9000BF8  str         x24,[sp,#0x10]
  00000001800013A8: B9400A98  ldr         w24,[x20,#8]
  00000001800013AC: F9000FF8  str         x24,[sp,#0x18]
  00000001800013B0: D0000018  adrp        x24,__imp_CreateFileA
  00000001800013B4: 79406FE8  ldrh        w8,[sp,#0x36]
  00000001800013B8: 910006B5  add         x21,x21,#1
  00000001800013BC: 9100A294  add         x20,x20,#0x28
  00000001800013C0: EB0802BF  cmp         x21,x8
  00000001800013C4: 54FFFBE3  blo         0000000180001340
  00000001800013C8: A9406FF7  ldp         x23,x27,[sp]
  00000001800013CC: 910022C4  add         x4,x22,#8
  00000001800013D0: B85FC08B  ldur        w11,[x4,#-4]
  00000001800013D4: D1001083  sub         x3,x4,#4
  00000001800013D8: CB170262  sub         x2,x19,x23
  00000001800013DC: D2800101  mov         x1,#8
  00000001800013E0: D2800014  mov         x20,#0
  00000001800013E4: 529F7E00  mov         w0,#0xFBF0
  00000001800013E8: 72B1E000  movk        w0,#0x8F00,lsl #0x10
  00000001800013EC: 51002168  sub         w8,w11,#8
  00000001800013F0: 927FF90A  and         x10,x8,#-2
  00000001800013F4: D2800006  mov         x6,#0
  00000001800013F8: B4000C4A  cbz         x10,0000000180001580
  00000001800013FC: AA0403E5  mov         x5,x4
  0000000180001400: 784024AB  ldrh        w11,[x5],#2
  0000000180001404: 530C7D68  lsr         w8,w11,#0xC
  0000000180001408: 5100050A  sub         w10,w8,#1
  000000018000140C: 7100255F  cmp         w10,#9
  0000000180001410: 54000AE8  bhi         000000018000156C
  0000000180001414: 10002E29  adr         x9,00000001800019D8
  0000000180001418: B8AA5928  ldrsw       x8,[x9,w10 uxtw #2]
  000000018000141C: 10000269  adr         x9,0000000180001468
  0000000180001420: 8B080928  add         x8,x9,x8,lsl #2
  0000000180001424: D61F0100  br          x8
  0000000180001428: B85F8088  ldur        w8,[x4,#-8]
  000000018000142C: 12002D69  and         w9,w11,#0xFFF
  0000000180001430: 0B08012C  add         w12,w9,w8
  0000000180001434: B86C4A68  ldr         w8,[x19,w12 uxtw #0]
  0000000180001438: D3507C49  ubfx        x9,x2,#0x10,#0x10
  000000018000143C: 0B080129  add         w9,w9,w8
  0000000180001440: B82C4A69  str         w9,[x19,w12 uxtw #0]
  0000000180001444: 1400004A  b           000000018000156C
  0000000180001448: B85F8088  ldur        w8,[x4,#-8]
  000000018000144C: 12002D69  and         w9,w11,#0xFFF
  0000000180001450: 12003C4A  and         w10,w2,#0xFFFF
  0000000180001454: 0B08012B  add         w11,w9,w8
  0000000180001458: B86B4A68  ldr         w8,[x19,w11 uxtw #0]
  000000018000145C: 0B08014A  add         w10,w10,w8
  0000000180001460: B82B4A6A  str         w10,[x19,w11 uxtw #0]
  0000000180001464: 14000042  b           000000018000156C
  0000000180001468: B85F8088  ldur        w8,[x4,#-8]
  000000018000146C: 12002D69  and         w9,w11,#0xFFF
  0000000180001470: 0B08012B  add         w11,w9,w8
  0000000180001474: B86B4A69  ldr         w9,[x19,w11 uxtw #0]
  0000000180001478: 0B090048  add         w8,w2,w9
  000000018000147C: B82B4A68  str         w8,[x19,w11 uxtw #0]
  0000000180001480: 1400003B  b           000000018000156C
  0000000180001484: B85F8088  ldur        w8,[x4,#-8]
  0000000180001488: 12002D69  and         w9,w11,#0xFFF
  000000018000148C: 0B080129  add         w9,w9,w8
  0000000180001490: 8B29426F  add         x15,x19,w9,uxtw #0
  0000000180001494: 29401DEE  ldp         w14,w7,[x15]
  0000000180001498: 121601C8  and         w8,w14,#0x400
  000000018000149C: 0B0E2D0A  add         w10,w8,w14,lsl #0xB
  00000001800014A0: 53147DC9  lsr         w9,w14,#0x14
  00000001800014A4: 12180928  and         w8,w9,#0x700
  00000001800014A8: 0B0A050A  add         w10,w8,w10,lsl #1
  00000001800014AC: 53105DC9  ubfx        w9,w14,#0x10,#8
  00000001800014B0: 0B090148  add         w8,w10,w9
  00000001800014B4: 92403D0B  and         x11,x8,#0xFFFF
  00000001800014B8: 121600E9  and         w9,w7,#0x400
  00000001800014BC: 0B072D2A  add         w10,w9,w7,lsl #0xB
  00000001800014C0: 53047CE8  lsr         w8,w7,#4
  00000001800014C4: 12080909  and         w9,w8,#0x7000000
  00000001800014C8: 0B0A452A  add         w10,w9,w10,lsl #0x11
  00000001800014CC: 12101CE8  and         w8,w7,#0xFF0000
  00000001800014D0: 0B080149  add         w9,w10,w8
  00000001800014D4: AA09016B  orr         x11,x11,x9
  00000001800014D8: 8B020168  add         x8,x11,x2
  00000001800014DC: 2A0803EC  mov         w12,w8
  00000001800014E0: D350FD0D  lsr         x13,x8,#0x10
  00000001800014E4: 12180989  and         w9,w12,#0x700
  00000001800014E8: 12001D88  and         w8,w12,#0xFF
  00000001800014EC: 0B09110A  add         w10,w8,w9,lsl #4
  00000001800014F0: 53017D89  lsr         w9,w12,#1
  00000001800014F4: 12160128  and         w8,w9,#0x400
  00000001800014F8: 0B0A410A  add         w10,w8,w10,lsl #0x10
  00000001800014FC: 530C3D89  ubfx        w9,w12,#0xC,#4
  0000000180001500: 0A0001C8  and         w8,w14,w0
  0000000180001504: 0B09014B  add         w11,w10,w9
  0000000180001508: 0B080169  add         w9,w11,w8
  000000018000150C: B90001E9  str         w9,[x15]
  0000000180001510: 121809AA  and         w10,w13,#0x700
  0000000180001514: 12001DA8  and         w8,w13,#0xFF
  0000000180001518: 53017DA9  lsr         w9,w13,#1
  000000018000151C: 0B0A110B  add         w11,w8,w10,lsl #4
  0000000180001520: 12160128  and         w8,w9,#0x400
  0000000180001524: 0B0B410A  add         w10,w8,w11,lsl #0x10
  0000000180001528: 530C3DA9  ubfx        w9,w13,#0xC,#4
  000000018000152C: 0A0000E8  and         w8,w7,w0
  0000000180001530: 0B09014B  add         w11,w10,w9
  0000000180001534: 785FE0A9  ldurh       w9,[x5,#-2]
  0000000180001538: 0B08016C  add         w12,w11,w8
  000000018000153C: B85F8088  ldur        w8,[x4,#-8]
  0000000180001540: 12002D2A  and         w10,w9,#0xFFF
  0000000180001544: 0B080149  add         w9,w10,w8
  0000000180001548: 8B29426A  add         x10,x19,w9,uxtw #0
  000000018000154C: B900054C  str         w12,[x10,#4]
  0000000180001550: 14000007  b           000000018000156C
  0000000180001554: B85F8088  ldur        w8,[x4,#-8]
  0000000180001558: 12002D69  and         w9,w11,#0xFFF
  000000018000155C: 0B08012B  add         w11,w9,w8
  0000000180001560: F86B4A69  ldr         x9,[x19,w11 uxtw #0]
  0000000180001564: 8B02012A  add         x10,x9,x2
  0000000180001568: F82B4A6A  str         x10,[x19,w11 uxtw #0]
  000000018000156C: B940006B  ldr         w11,[x3]
  0000000180001570: 910004C6  add         x6,x6,#1
  0000000180001574: 51002168  sub         w8,w11,#8
  0000000180001578: EB4804DF  cmp         x6,x8,lsr #1
  000000018000157C: 54FFF423  blo         0000000180001400
  0000000180001580: 8B2B4021  add         x1,x1,w11,uxtw #0
  0000000180001584: 8B160024  add         x4,x1,x22
  0000000180001588: D1001083  sub         x3,x4,#4
  000000018000158C: B940006B  ldr         w11,[x3]
  0000000180001590: 35FFF2EB  cbnz        w11,00000001800013EC
  0000000180001594: 794093E8  ldrh        w8,[sp,#0x48]
  0000000180001598: D2800019  mov         x25,#0
  000000018000159C: 71042D1F  cmp         w8,#0x10B
  00000001800015A0: 54000E01  bne         0000000180001760
  00000001800015A4: B940B3EC  ldr         w12,[sp,#0xB0]
  00000001800015A8: AA0C03EA  mov         x10,x12
  00000001800015AC: B8736948  ldr         w8,[x10,x19]
  00000001800015B0: 34001CE8  cbz         w8,000000018000194C
  00000001800015B4: D2800016  mov         x22,#0
  00000001800015B8: 8B0A02C8  add         x8,x22,x10
  00000001800015BC: 8B130109  add         x9,x8,x19
  00000001800015C0: B9400D2A  ldr         w10,[x9,#0xC]
  00000001800015C4: D2800017  mov         x23,#0
  00000001800015C8: 3400072A  cbz         w10,00000001800016AC
  00000001800015CC: D2820611  mov         xip1,#0x1030
  00000001800015D0: 8B3163E8  add         x8,sp,xip1
  00000001800015D4: CB1B010A  sub         x10,x8,x27
  00000001800015D8: AA1B03E9  mov         x9,x27
  00000001800015DC: 39C00128  ldrsb       w8,[x9]
  00000001800015E0: 382A6928  strb        w8,[x9,x10]
  00000001800015E4: 91000529  add         x9,x9,#1
  00000001800015E8: 35FFFFA8  cbnz        w8,00000001800015DC
  00000001800015EC: D0000008  adrp        x8,__imp_CreateFileA
  00000001800015F0: F9404508  ldr         x8,[x8,#0x88]
  00000001800015F4: 52800B81  mov         w1,#0x5C
  00000001800015F8: D2820611  mov         xip1,#0x1030
  00000001800015FC: 8B3163E0  add         x0,sp,xip1
  0000000180001600: D63F0100  blr         x8
  0000000180001604: D2820611  mov         xip1,#0x1030
  0000000180001608: 8B3163E8  add         x8,sp,xip1
  000000018000160C: EB08001F  cmp         x0,x8
  0000000180001610: FA409804  ccmpls      x0,#0,#4
  0000000180001614: 54000380  beq         0000000180001684
  0000000180001618: 3900041F  strb        wzr,[x0,#1]
  000000018000161C: B940B3E8  ldr         w8,[sp,#0xB0]
  0000000180001620: 8B2842C8  add         x8,x22,w8,uxtw #0
  0000000180001624: 8B130109  add         x9,x8,x19
  0000000180001628: B9400D2C  ldr         w12,[x9,#0xC]
  000000018000162C: 8B2C426B  add         x11,x19,w12,uxtw #0
  0000000180001630: 39C00168  ldrsb       w8,[x11]
  0000000180001634: AA0B03EA  mov         x10,x11
  0000000180001638: 34000068  cbz         w8,0000000180001644
  000000018000163C: 38C01D48  ldrsb       w8,[x10,#1]!
  0000000180001640: 35FFFFE8  cbnz        w8,000000018000163C
  0000000180001644: D0000008  adrp        x8,__imp_CreateFileA
  0000000180001648: F9407D08  ldr         x8,[x8,#0xF8]
  000000018000164C: 8B2C4261  add         x1,x19,w12,uxtw #0
  0000000180001650: CB0B0142  sub         x2,x10,x11
  0000000180001654: D2820611  mov         xip1,#0x1030
  0000000180001658: 8B3163E0  add         x0,sp,xip1
  000000018000165C: D63F0100  blr         x8
  0000000180001660: D0000008  adrp        x8,__imp_CreateFileA
  0000000180001664: F9401108  ldr         x8,[x8,#0x20]
  0000000180001668: D2820611  mov         xip1,#0x1030
  000000018000166C: 8B3163E0  add         x0,sp,xip1
  0000000180001670: D63F0100  blr         x8
  0000000180001674: AA0003F4  mov         x20,x0
  0000000180001678: B4000074  cbz         x20,0000000180001684
  000000018000167C: B940B3EC  ldr         w12,[sp,#0xB0]
  0000000180001680: 1400000C  b           00000001800016B0
  0000000180001684: B940B3E8  ldr         w8,[sp,#0xB0]
  0000000180001688: 8B2842C8  add         x8,x22,w8,uxtw #0
  000000018000168C: 8B130109  add         x9,x8,x19
  0000000180001690: B9400D2A  ldr         w10,[x9,#0xC]
  0000000180001694: D0000008  adrp        x8,__imp_CreateFileA
  0000000180001698: F9401108  ldr         x8,[x8,#0x20]
  000000018000169C: 8B2A4260  add         x0,x19,w10,uxtw #0
  00000001800016A0: D63F0100  blr         x8
  00000001800016A4: B940B3EC  ldr         w12,[sp,#0xB0]
  00000001800016A8: AA0003F4  mov         x20,x0
  00000001800016AC: B40004B4  cbz         x20,0000000180001740
  00000001800016B0: 8B2C42C8  add         x8,x22,w12,uxtw #0
  00000001800016B4: 8B13010B  add         x11,x8,x19
  00000001800016B8: B9401169  ldr         w9,[x11,#0x10]
  00000001800016BC: B8694A6A  ldr         w10,[x19,w9 uxtw #0]
  00000001800016C0: 3400040A  cbz         w10,0000000180001740
  00000001800016C4: D2800015  mov         x21,#0
  00000001800016C8: D0000018  adrp        x24,__imp_CreateFileA
  00000001800016CC: D000001A  adrp        x26,__imp_CreateFileA
  00000001800016D0: B9400168  ldr         w8,[x11]
  00000001800016D4: AA1403E0  mov         x0,x20
  00000001800016D8: 8B2842A9  add         x9,x21,w8,uxtw #0
  00000001800016DC: B873692A  ldr         w10,[x9,x19]
  00000001800016E0: 36F800AA  tbz         x10,#0x1F,00000001800016F4
  00000001800016E4: F9401708  ldr         x8,[x24,#0x28]
  00000001800016E8: 92403D41  and         x1,x10,#0xFFFF
  00000001800016EC: D63F0100  blr         x8
  00000001800016F0: 14000005  b           0000000180001704
  00000001800016F4: F9401749  ldr         x9,[x26,#0x28]
  00000001800016F8: 8B130148  add         x8,x10,x19
  00000001800016FC: 91000901  add         x1,x8,#2
  0000000180001700: D63F0120  blr         x9
  0000000180001704: B940B3E8  ldr         w8,[sp,#0xB0]
  0000000180001708: 910006F7  add         x23,x23,#1
  000000018000170C: 8B2842C8  add         x8,x22,w8,uxtw #0
  0000000180001710: 8B130109  add         x9,x8,x19
  0000000180001714: B940112A  ldr         w10,[x9,#0x10]
  0000000180001718: 8B2A42AB  add         x11,x21,w10,uxtw #0
  000000018000171C: D37EF6F5  lsl         x21,x23,#2
  0000000180001720: B8336960  str         w0,[x11,x19]
  0000000180001724: B940B3EC  ldr         w12,[sp,#0xB0]
  0000000180001728: 8B2C42C8  add         x8,x22,w12,uxtw #0
  000000018000172C: 8B13010B  add         x11,x8,x19
  0000000180001730: B9401169  ldr         w9,[x11,#0x10]
  0000000180001734: 8B2942A8  add         x8,x21,w9,uxtw #0
  0000000180001738: B873690A  ldr         w10,[x8,x19]
  000000018000173C: 35FFFCAA  cbnz        w10,00000001800016D0
  0000000180001740: D2800288  mov         x8,#0x14
  0000000180001744: 91000739  add         x25,x25,#1
  0000000180001748: 9B087F36  mul         x22,x25,x8
  000000018000174C: D3407D8A  uxtw        x10,w12
  0000000180001750: 8B0A02C8  add         x8,x22,x10
  0000000180001754: B8736909  ldr         w9,[x8,x19]
  0000000180001758: 35FFF309  cbnz        w9,00000001800015B8
  000000018000175C: 1400007B  b           0000000180001948
  0000000180001760: 71082D1F  cmp         w8,#0x20B
  0000000180001764: 54000F41  bne         000000018000194C
  0000000180001768: B940C3EC  ldr         w12,[sp,#0xC0]
  000000018000176C: AA0C03EA  mov         x10,x12
  0000000180001770: B8736948  ldr         w8,[x10,x19]
  0000000180001774: 34000EC8  cbz         w8,000000018000194C
  0000000180001778: D2800015  mov         x21,#0
  000000018000177C: 8B150148  add         x8,x10,x21
  0000000180001780: 8B130109  add         x9,x8,x19
  0000000180001784: B9400D2A  ldr         w10,[x9,#0xC]
  0000000180001788: D2800018  mov         x24,#0
  000000018000178C: 3400072A  cbz         w10,0000000180001870
  0000000180001790: D2840611  mov         xip1,#0x2030
  0000000180001794: 8B3163E8  add         x8,sp,xip1
  0000000180001798: CB1B010A  sub         x10,x8,x27
  000000018000179C: AA1B03E9  mov         x9,x27
  00000001800017A0: 39C00128  ldrsb       w8,[x9]
  00000001800017A4: 382A6928  strb        w8,[x9,x10]
  00000001800017A8: 91000529  add         x9,x9,#1
  00000001800017AC: 35FFFFA8  cbnz        w8,00000001800017A0
  00000001800017B0: D0000008  adrp        x8,__imp_CreateFileA
  00000001800017B4: F9404508  ldr         x8,[x8,#0x88]
  00000001800017B8: 52800B81  mov         w1,#0x5C
  00000001800017BC: D2840611  mov         xip1,#0x2030
  00000001800017C0: 8B3163E0  add         x0,sp,xip1
  00000001800017C4: D63F0100  blr         x8
  00000001800017C8: D2840611  mov         xip1,#0x2030
  00000001800017CC: 8B3163E8  add         x8,sp,xip1
  00000001800017D0: EB08001F  cmp         x0,x8
  00000001800017D4: FA409804  ccmpls      x0,#0,#4
  00000001800017D8: 54000380  beq         0000000180001848
  00000001800017DC: 3900041F  strb        wzr,[x0,#1]
  00000001800017E0: B940C3E8  ldr         w8,[sp,#0xC0]
  00000001800017E4: 8B2842A8  add         x8,x21,w8,uxtw #0
  00000001800017E8: 8B130109  add         x9,x8,x19
  00000001800017EC: B9400D2C  ldr         w12,[x9,#0xC]
  00000001800017F0: 8B2C426B  add         x11,x19,w12,uxtw #0
  00000001800017F4: 39C00168  ldrsb       w8,[x11]
  00000001800017F8: AA0B03EA  mov         x10,x11
  00000001800017FC: 34000068  cbz         w8,0000000180001808
  0000000180001800: 38C01D48  ldrsb       w8,[x10,#1]!
  0000000180001804: 35FFFFE8  cbnz        w8,0000000180001800
  0000000180001808: D0000008  adrp        x8,__imp_CreateFileA
  000000018000180C: F9407D08  ldr         x8,[x8,#0xF8]
  0000000180001810: 8B2C4261  add         x1,x19,w12,uxtw #0
  0000000180001814: CB0B0142  sub         x2,x10,x11
  0000000180001818: D2840611  mov         xip1,#0x2030
  000000018000181C: 8B3163E0  add         x0,sp,xip1
  0000000180001820: D63F0100  blr         x8
  0000000180001824: D0000008  adrp        x8,__imp_CreateFileA
  0000000180001828: F9401108  ldr         x8,[x8,#0x20]
  000000018000182C: D2840611  mov         xip1,#0x2030
  0000000180001830: 8B3163E0  add         x0,sp,xip1
  0000000180001834: D63F0100  blr         x8
  0000000180001838: AA0003F4  mov         x20,x0
  000000018000183C: B4000074  cbz         x20,0000000180001848
  0000000180001840: B940C3EC  ldr         w12,[sp,#0xC0]
  0000000180001844: 1400000C  b           0000000180001874
  0000000180001848: B940C3E8  ldr         w8,[sp,#0xC0]
  000000018000184C: 8B2842A8  add         x8,x21,w8,uxtw #0
  0000000180001850: 8B130109  add         x9,x8,x19
  0000000180001854: B9400D2A  ldr         w10,[x9,#0xC]
  0000000180001858: D0000008  adrp        x8,__imp_CreateFileA
  000000018000185C: F9401108  ldr         x8,[x8,#0x20]
  0000000180001860: 8B2A4260  add         x0,x19,w10,uxtw #0
  0000000180001864: D63F0100  blr         x8
  0000000180001868: B940C3EC  ldr         w12,[sp,#0xC0]
  000000018000186C: AA0003F4  mov         x20,x0
  0000000180001870: B40005F4  cbz         x20,000000018000192C
  0000000180001874: 8B2C42A8  add         x8,x21,w12,uxtw #0
  0000000180001878: 8B13010B  add         x11,x8,x19
  000000018000187C: B9401169  ldr         w9,[x11,#0x10]
  0000000180001880: B8694A6A  ldr         w10,[x19,w9 uxtw #0]
  0000000180001884: 3400054A  cbz         w10,000000018000192C
  0000000180001888: D2800016  mov         x22,#0
  000000018000188C: D2800017  mov         x23,#0
  0000000180001890: D000001B  adrp        x27,__imp_CreateFileA
  0000000180001894: D000001A  adrp        x26,__imp_CreateFileA
  0000000180001898: B9400168  ldr         w8,[x11]
  000000018000189C: 8B2842C9  add         x9,x22,w8,uxtw #0
  00000001800018A0: B873692A  ldr         w10,[x9,x19]
  00000001800018A4: 3400042A  cbz         w10,0000000180001928
  00000001800018A8: F8736928  ldr         x8,[x9,x19]
  00000001800018AC: AA1403E0  mov         x0,x20
  00000001800018B0: B6F80148  tbz         x8,#0x3F,00000001800018D8
  00000001800018B4: F9401768  ldr         x8,[x27,#0x28]
  00000001800018B8: 92403D41  and         x1,x10,#0xFFFF
  00000001800018BC: D63F0100  blr         x8
  00000001800018C0: B940C3E8  ldr         w8,[sp,#0xC0]
  00000001800018C4: 8B2842A8  add         x8,x21,w8,uxtw #0
  00000001800018C8: 8B130109  add         x9,x8,x19
  00000001800018CC: B940112A  ldr         w10,[x9,#0x10]
  00000001800018D0: 8B2A42CB  add         x11,x22,w10,uxtw #0
  00000001800018D4: 1400000A  b           00000001800018FC
  00000001800018D8: F9401749  ldr         x9,[x26,#0x28]
  00000001800018DC: 8B130148  add         x8,x10,x19
  00000001800018E0: 91000901  add         x1,x8,#2
  00000001800018E4: D63F0120  blr         x9
  00000001800018E8: B940C3E8  ldr         w8,[sp,#0xC0]
  00000001800018EC: 8B2842A8  add         x8,x21,w8,uxtw #0
  00000001800018F0: 8B130109  add         x9,x8,x19
  00000001800018F4: B940112A  ldr         w10,[x9,#0x10]
  00000001800018F8: 8B2A42EB  add         x11,x23,w10,uxtw #0
  00000001800018FC: F8336960  str         x0,[x11,x19]
  0000000180001900: B940C3EC  ldr         w12,[sp,#0xC0]
  0000000180001904: 91000718  add         x24,x24,#1
  0000000180001908: D37EF716  lsl         x22,x24,#2
  000000018000190C: 910022F7  add         x23,x23,#8
  0000000180001910: 8B2C42A8  add         x8,x21,w12,uxtw #0
  0000000180001914: 8B13010B  add         x11,x8,x19
  0000000180001918: B9401169  ldr         w9,[x11,#0x10]
  000000018000191C: 8B2942C8  add         x8,x22,w9,uxtw #0
  0000000180001920: B873690A  ldr         w10,[x8,x19]
  0000000180001924: 35FFFBAA  cbnz        w10,0000000180001898
  0000000180001928: F94007FB  ldr         x27,[sp,#8]
  000000018000192C: D2800288  mov         x8,#0x14
  0000000180001930: 91000739  add         x25,x25,#1
  0000000180001934: 9B087F35  mul         x21,x25,x8
  0000000180001938: D3407D8A  uxtw        x10,w12
  000000018000193C: 8B150148  add         x8,x10,x21
  0000000180001940: B8736909  ldr         w9,[x8,x19]
  0000000180001944: 35FFF1C9  cbnz        w9,000000018000177C
  0000000180001948: F94013FA  ldr         x26,[sp,#0x20]
  000000018000194C: F9400BF4  ldr         x20,[sp,#0x10]
  0000000180001950: B4000234  cbz         x20,0000000180001994
  0000000180001954: F9400FF5  ldr         x21,[sp,#0x18]
  0000000180001958: D0000008  adrp        x8,__imp_CreateFileA
  000000018000195C: F9401908  ldr         x8,[x8,#0x30]
  0000000180001960: 9100A3E3  add         x3,sp,#0x28
  0000000180001964: 52800802  mov         w2,#0x40
  0000000180001968: AA1403E0  mov         x0,x20
  000000018000196C: AA1503E1  mov         x1,x21
  0000000180001970: D63F0100  blr         x8
  0000000180001974: D0000008  adrp        x8,__imp_CreateFileA
  0000000180001978: F9402108  ldr         x8,[x8,#0x40]
  000000018000197C: D63F0100  blr         x8
  0000000180001980: D0000008  adrp        x8,__imp_CreateFileA
  0000000180001984: F9401D08  ldr         x8,[x8,#0x38]
  0000000180001988: AA1503E2  mov         x2,x21
  000000018000198C: AA1403E1  mov         x1,x20
  0000000180001990: D63F0100  blr         x8
  0000000180001994: D0000008  adrp        x8,__imp_CreateFileA
  0000000180001998: F9402508  ldr         x8,[x8,#0x48]
  000000018000199C: AA1A03E0  mov         x0,x26
  00000001800019A0: D63F0100  blr         x8
  00000001800019A4: AA1303E0  mov         x0,x19
  00000001800019A8: 14000002  b           00000001800019B0
  00000001800019AC: D2800000  mov         x0,#0
  00000001800019B0: D280606F  mov         x15,#0x303
  00000001800019B4: 8B2F73FF  add         sp,sp,x15,lsl #4
  00000001800019B8: 97FFFDBA  bl          __security_pop_cookie
  00000001800019BC: F9402BFB  ldr         x27,[sp,#0x50]
  00000001800019C0: A9446BF9  ldp         x25,x26,[sp,#0x40]
  00000001800019C4: A94363F7  ldp         x23,x24,[sp,#0x30]
  00000001800019C8: A9425BF5  ldp         x21,x22,[sp,#0x20]
  00000001800019CC: A94153F3  ldp         x19,x20,[sp,#0x10]
  00000001800019D0: A8C67BFD  ldp         fp,lr,[sp],#0x60
  00000001800019D4: D65F03C0  ret
  00000001800019D8: FFFFFFF0
  00000001800019DC: FFFFFFF8
  00000001800019E0: 00000000
  00000001800019E4: 00000041
  00000001800019E8: 00000041
  00000001800019EC: 00000041
  00000001800019F0: 00000007
  00000001800019F4: 00000041
  00000001800019F8: 00000041
  00000001800019FC: 0000003B
ULExecDllMain:
  0000000180001A00: B9402808  ldr         w8,[x0,#0x28]
  0000000180001A04: D2800002  mov         x2,#0
  0000000180001A08: 8B284009  add         x9,x0,w8,uxtw #0
  0000000180001A0C: D61F0120  br          x9
ULGetProcAddress:
  0000000180001A10: A9BC53F3  stp         x19,x20,[sp,#-0x40]!
  0000000180001A14: A9015BF5  stp         x21,x22,[sp,#0x10]
  0000000180001A18: A90263F7  stp         x23,x24,[sp,#0x20]
  0000000180001A1C: F9001BF9  str         x25,[sp,#0x30]
  0000000180001A20: A9BF7BFD  stp         fp,lr,[sp,#-0x10]!
  0000000180001A24: 910003FD  mov         fp,sp
  0000000180001A28: AA0003F3  mov         x19,x0
  0000000180001A2C: 79403268  ldrh        w8,[x19,#0x18]
  0000000180001A30: AA0103F8  mov         x24,x1
  0000000180001A34: D2800019  mov         x25,#0
  0000000180001A38: 71042D1F  cmp         w8,#0x10B
  0000000180001A3C: 54000301  bne         0000000180001A9C
  0000000180001A40: B9407A68  ldr         w8,[x19,#0x78]
  0000000180001A44: 8B284277  add         x23,x19,w8,uxtw #0
  0000000180001A48: B9401AF4  ldr         w20,[x23,#0x18]
  0000000180001A4C: B4000594  cbz         x20,0000000180001AFC
  0000000180001A50: B94022E8  ldr         w8,[x23,#0x20]
  0000000180001A54: D2800015  mov         x21,#0
  0000000180001A58: 8B284276  add         x22,x19,w8,uxtw #0
  0000000180001A5C: B84046C8  ldr         w8,[x22],#4
  0000000180001A60: AA1803E1  mov         x1,x24
  0000000180001A64: 8B284260  add         x0,x19,w8,uxtw #0
  0000000180001A68: 94000323  bl          strcmp
  0000000180001A6C: 35000100  cbnz        w0,0000000180001A8C
  0000000180001A70: B94026E8  ldr         w8,[x23,#0x24]
  0000000180001A74: 8B2842A9  add         x9,x21,w8,uxtw #0
  0000000180001A78: B9401EE8  ldr         w8,[x23,#0x1C]
  0000000180001A7C: 7873692A  ldrh        w10,[x9,x19]
  0000000180001A80: 8B0A0908  add         x8,x8,x10,lsl #2
  0000000180001A84: B8736909  ldr         w9,[x8,x19]
  0000000180001A88: 8B294279  add         x25,x19,w9,uxtw #0
  0000000180001A8C: 91000AB5  add         x21,x21,#2
  0000000180001A90: D1000694  sub         x20,x20,#1
  0000000180001A94: B5FFFE54  cbnz        x20,0000000180001A5C
  0000000180001A98: 14000019  b           0000000180001AFC
  0000000180001A9C: 71082D1F  cmp         w8,#0x20B
  0000000180001AA0: 540002E1  bne         0000000180001AFC
  0000000180001AA4: B9408A68  ldr         w8,[x19,#0x88]
  0000000180001AA8: 8B284277  add         x23,x19,w8,uxtw #0
  0000000180001AAC: B9401AF4  ldr         w20,[x23,#0x18]
  0000000180001AB0: B4000274  cbz         x20,0000000180001AFC
  0000000180001AB4: B94022E8  ldr         w8,[x23,#0x20]
  0000000180001AB8: D2800015  mov         x21,#0
  0000000180001ABC: 8B284276  add         x22,x19,w8,uxtw #0
  0000000180001AC0: B84046C8  ldr         w8,[x22],#4
  0000000180001AC4: AA1803E1  mov         x1,x24
  0000000180001AC8: 8B284260  add         x0,x19,w8,uxtw #0
  0000000180001ACC: 9400030A  bl          strcmp
  0000000180001AD0: 35000100  cbnz        w0,0000000180001AF0
  0000000180001AD4: B94026E8  ldr         w8,[x23,#0x24]
  0000000180001AD8: 8B2842A9  add         x9,x21,w8,uxtw #0
  0000000180001ADC: B9401EE8  ldr         w8,[x23,#0x1C]
  0000000180001AE0: 7873692A  ldrh        w10,[x9,x19]
  0000000180001AE4: 8B0A0908  add         x8,x8,x10,lsl #2
  0000000180001AE8: B8736909  ldr         w9,[x8,x19]
  0000000180001AEC: 8B294279  add         x25,x19,w9,uxtw #0
  0000000180001AF0: 91000AB5  add         x21,x21,#2
  0000000180001AF4: D1000694  sub         x20,x20,#1
  0000000180001AF8: B5FFFE54  cbnz        x20,0000000180001AC0
  0000000180001AFC: AA1903E0  mov         x0,x25
  0000000180001B00: A8C17BFD  ldp         fp,lr,[sp],#0x10
  0000000180001B04: F9401BF9  ldr         x25,[sp,#0x30]
  0000000180001B08: A94263F7  ldp         x23,x24,[sp,#0x20]
  0000000180001B0C: A9415BF5  ldp         x21,x22,[sp,#0x10]
  0000000180001B10: A8C453F3  ldp         x19,x20,[sp],#0x40
  0000000180001B14: D65F03C0  ret
ULFreeLibrary:
  0000000180001B18: D0000008  adrp        x8,__imp_CreateFileA
  0000000180001B1C: F9402908  ldr         x8,[x8,#0x50]
  0000000180001B20: 52900002  mov         w2,#0x8000
  0000000180001B24: D2800001  mov         x1,#0
  0000000180001B28: D61F0100  br          x8
  0000000180001B2C: 00 00 00 00                                      ....
dllmain_crt_dispatch:
  0000000180001B30: A9BF7BFD  stp         fp,lr,[sp,#-0x10]!
  0000000180001B34: 910003FD  mov         fp,sp
  0000000180001B38: 34000221  cbz         w1,0000000180001B7C
  0000000180001B3C: 7100043F  cmp         w1,#1
  0000000180001B40: 54000180  beq         0000000180001B70
  0000000180001B44: 7100083F  cmp         w1,#2
  0000000180001B48: 540000E0  beq         0000000180001B64
  0000000180001B4C: 71000C3F  cmp         w1,#3
  0000000180001B50: 54000060  beq         0000000180001B5C
  0000000180001B54: 52800020  mov         w0,#1
  0000000180001B58: 1400000C  b           0000000180001B88
  0000000180001B5C: 940001A1  bl          __scrt_dllmain_crt_thread_detach
  0000000180001B60: 14000002  b           0000000180001B68
  0000000180001B64: 9400018F  bl          __scrt_dllmain_crt_thread_attach
  0000000180001B68: 53001C00  uxtb        w0,w0
  0000000180001B6C: 14000007  b           0000000180001B88
  0000000180001B70: AA0203E1  mov         x1,x2
  0000000180001B74: 94000007  bl          0000000180001B90
  0000000180001B78: 14000004  b           0000000180001B88
  0000000180001B7C: F100005F  cmp         x2,#0
  0000000180001B80: 1A9F07E0  csetne      w0
  0000000180001B84: 9400004F  bl          0000000180001CC0
  0000000180001B88: A8C17BFD  ldp         fp,lr,[sp],#0x10
  0000000180001B8C: D65F03C0  ret
dllmain_crt_process_attach:
  0000000180001B90: A9BD53F3  stp         x19,x20,[sp,#-0x30]!
  0000000180001B94: A9015BF5  stp         x21,x22,[sp,#0x10]
  0000000180001B98: F90013F7  str         x23,[sp,#0x20]
  0000000180001B9C: A9BE7BFD  stp         fp,lr,[sp,#-0x20]!
  0000000180001BA0: 910003FD  mov         fp,sp
  0000000180001BA4: AA0003F5  mov         x21,x0
  0000000180001BA8: AA0103F6  mov         x22,x1
  0000000180001BAC: 52800000  mov         w0,#0
  0000000180001BB0: 940001CA  bl          __scrt_initialize_crt
  0000000180001BB4: 53001C08  uxtb        w8,w0
  0000000180001BB8: 34000748  cbz         w8,0000000180001CA0
  0000000180001BBC: 94000143  bl          __scrt_acquire_startup_lock
  0000000180001BC0: 53001C13  uxtb        w19,w0
  0000000180001BC4: 390043B3  strb        w19,[fp,#0x10]
  0000000180001BC8: 52800034  mov         w20,#1
  0000000180001BCC: F0000017  adrp        x23,__security_cookie
  0000000180001BD0: B94482E8  ldr         w8,[x23,#0x480]
  0000000180001BD4: 35000728  cbnz        w8,0000000180001CB8
  0000000180001BD8: 52800028  mov         w8,#1
  0000000180001BDC: B90482E8  str         w8,[x23,#0x480]
  0000000180001BE0: 94000166  bl          __scrt_dllmain_before_initialize_c
  0000000180001BE4: 53001C08  uxtb        w8,w0
  0000000180001BE8: 340002A8  cbz         w8,0000000180001C3C
  0000000180001BEC: 94000255  bl          _RTC_Initialize
  0000000180001BF0: 94000116  bl          ?__scrt_initialize_type_info@@YAXXZ
  0000000180001BF4: 94000127  bl          __scrt_initialize_default_local_stdio_options
  0000000180001BF8: D0000008  adrp        x8,__imp_CreateFileA
  0000000180001BFC: 9104C101  add         x1,x8,#0x130
  0000000180001C00: D0000009  adrp        x9,__imp_CreateFileA
  0000000180001C04: 9104A120  add         x0,x9,#0x128
  0000000180001C08: 94000294  bl          _initterm_e
  0000000180001C0C: 35000180  cbnz        w0,0000000180001C3C
  0000000180001C10: 9400014A  bl          __scrt_dllmain_after_initialize_c
  0000000180001C14: 53001C08  uxtb        w8,w0
  0000000180001C18: 34000128  cbz         w8,0000000180001C3C
  0000000180001C1C: D0000008  adrp        x8,__imp_CreateFileA
  0000000180001C20: 91048101  add         x1,x8,#0x120
  0000000180001C24: D0000009  adrp        x9,__imp_CreateFileA
  0000000180001C28: 91046120  add         x0,x9,#0x118
  0000000180001C2C: 94000288  bl          _initterm
  0000000180001C30: 52800048  mov         w8,#2
  0000000180001C34: B90482E8  str         w8,[x23,#0x480]
  0000000180001C38: 52800014  mov         w20,#0
  0000000180001C3C: 2A1303E0  mov         w0,w19
  0000000180001C40: 9400021A  bl          __scrt_release_startup_lock
  0000000180001C44: 350002F4  cbnz        w20,0000000180001CA0
  0000000180001C48: 94000238  bl          __scrt_get_dyn_tls_init_callback
  0000000180001C4C: AA0003F3  mov         x19,x0
  0000000180001C50: F9400268  ldr         x8,[x19]
  0000000180001C54: B40001A8  cbz         x8,0000000180001C88
  0000000180001C58: 940001E0  bl          __scrt_is_nonwritable_in_current_image
  0000000180001C5C: 53001C08  uxtb        w8,w0
  0000000180001C60: 34000148  cbz         w8,0000000180001C88
  0000000180001C64: F9400273  ldr         x19,[x19]
  0000000180001C68: AA1303EF  mov         x15,x19
  0000000180001C6C: D0000008  adrp        x8,__imp_CreateFileA
  0000000180001C70: F9408908  ldr         x8,[x8,#0x110]
  0000000180001C74: D63F0100  blr         x8
  0000000180001C78: AA1603E2  mov         x2,x22
  0000000180001C7C: 52800041  mov         w1,#2
  0000000180001C80: AA1503E0  mov         x0,x21
  0000000180001C84: D63F0260  blr         x19
  0000000180001C88: F000000A  adrp        x10,__security_cookie
  0000000180001C8C: B9402148  ldr         w8,[x10,#0x20]
  0000000180001C90: 11000509  add         w9,w8,#1
  0000000180001C94: B9002149  str         w9,[x10,#0x20]
  0000000180001C98: 52800020  mov         w0,#1
  0000000180001C9C: 14000002  b           0000000180001CA4
  0000000180001CA0: 52800000  mov         w0,#0
  0000000180001CA4: A8C27BFD  ldp         fp,lr,[sp],#0x20
  0000000180001CA8: F94013F7  ldr         x23,[sp,#0x20]
  0000000180001CAC: A9415BF5  ldp         x21,x22,[sp,#0x10]
  0000000180001CB0: A8C353F3  ldp         x19,x20,[sp],#0x30
  0000000180001CB4: D65F03C0  ret
  0000000180001CB8: 528000E0  mov         w0,#7
  0000000180001CBC: 9400021F  bl          __scrt_fastfail
dllmain_crt_process_detach:
  0000000180001CC0: A9BE53F3  stp         x19,x20,[sp,#-0x20]!
  0000000180001CC4: F9000BF5  str         x21,[sp,#0x10]
  0000000180001CC8: A9BE7BFD  stp         fp,lr,[sp,#-0x20]!
  0000000180001CCC: 910003FD  mov         fp,sp
  0000000180001CD0: 53001C14  uxtb        w20,w0
  0000000180001CD4: F0000009  adrp        x9,__security_cookie
  0000000180001CD8: B9402128  ldr         w8,[x9,#0x20]
  0000000180001CDC: 7100011F  cmp         w8,#0
  0000000180001CE0: 540000CC  bgt         0000000180001CF8
  0000000180001CE4: 52800000  mov         w0,#0
  0000000180001CE8: A8C27BFD  ldp         fp,lr,[sp],#0x20
  0000000180001CEC: F9400BF5  ldr         x21,[sp,#0x10]
  0000000180001CF0: A8C253F3  ldp         x19,x20,[sp],#0x20
  0000000180001CF4: D65F03C0  ret
  0000000180001CF8: 51000508  sub         w8,w8,#1
  0000000180001CFC: B9002128  str         w8,[x9,#0x20]
  0000000180001D00: 940000F2  bl          __scrt_acquire_startup_lock
  0000000180001D04: 53001C13  uxtb        w19,w0
  0000000180001D08: 390043B3  strb        w19,[fp,#0x10]
  0000000180001D0C: F0000015  adrp        x21,__security_cookie
  0000000180001D10: B94482A8  ldr         w8,[x21,#0x480]
  0000000180001D14: 7100091F  cmp         w8,#2
  0000000180001D18: 54000201  bne         0000000180001D58
  0000000180001D1C: 94000159  bl          __scrt_dllmain_uninitialize_c
  0000000180001D20: 940000D0  bl          ?__scrt_uninitialize_type_info@@YAXXZ
  0000000180001D24: 94000221  bl          _RTC_Terminate
  0000000180001D28: B90482BF  str         wzr,[x21,#0x480]
  0000000180001D2C: 2A1303E0  mov         w0,w19
  0000000180001D30: 940001DE  bl          __scrt_release_startup_lock
  0000000180001D34: 52800001  mov         w1,#0
  0000000180001D38: 2A1403E0  mov         w0,w20
  0000000180001D3C: 940001E9  bl          __scrt_uninitialize_crt
  0000000180001D40: 53001C08  uxtb        w8,w0
  0000000180001D44: 7100011F  cmp         w8,#0
  0000000180001D48: 1A9F07F3  csetne      w19
  0000000180001D4C: 9400015B  bl          __scrt_dllmain_uninitialize_critical
  0000000180001D50: 2A1303E0  mov         w0,w19
  0000000180001D54: 17FFFFE5  b           0000000180001CE8
  0000000180001D58: 528000E0  mov         w0,#7
  0000000180001D5C: 940001F7  bl          __scrt_fastfail
dllmain_dispatch:
  0000000180001D60: A9BE53F3  stp         x19,x20,[sp,#-0x20]!
  0000000180001D64: A9015BF5  stp         x21,x22,[sp,#0x10]
  0000000180001D68: A9BD7BFD  stp         fp,lr,[sp,#-0x30]!
  0000000180001D6C: 910003FD  mov         fp,sp
  0000000180001D70: AA0003F6  mov         x22,x0
  0000000180001D74: F90013B6  str         x22,[fp,#0x20]
  0000000180001D78: 2A0103F4  mov         w20,w1
  0000000180001D7C: B90017B4  str         w20,[fp,#0x14]
  0000000180001D80: AA0203F5  mov         x21,x2
  0000000180001D84: F9000FB5  str         x21,[fp,#0x18]
  0000000180001D88: 350000F4  cbnz        w20,0000000180001DA4
  0000000180001D8C: F0000008  adrp        x8,__security_cookie
  0000000180001D90: B9402108  ldr         w8,[x8,#0x20]
  0000000180001D94: 7100011F  cmp         w8,#0
  0000000180001D98: 5400006C  bgt         0000000180001DA4
  0000000180001D9C: 52800000  mov         w0,#0
  0000000180001DA0: 1400003A  b           0000000180001E88
  0000000180001DA4: 51000688  sub         w8,w20,#1
  0000000180001DA8: 7100051F  cmp         w8,#1
  0000000180001DAC: 540001E8  bhi         0000000180001DE8
  0000000180001DB0: AA1503E2  mov         x2,x21
  0000000180001DB4: 2A1403E1  mov         w1,w20
  0000000180001DB8: AA1603E0  mov         x0,x22
  0000000180001DBC: 94000037  bl          0000000180001E98
  0000000180001DC0: 2A0003F3  mov         w19,w0
  0000000180001DC4: B90013B3  str         w19,[fp,#0x10]
  0000000180001DC8: 34000593  cbz         w19,0000000180001E78
  0000000180001DCC: AA1503E2  mov         x2,x21
  0000000180001DD0: 2A1403E1  mov         w1,w20
  0000000180001DD4: AA1603E0  mov         x0,x22
  0000000180001DD8: 97FFFF56  bl          0000000180001B30
  0000000180001DDC: 2A0003F3  mov         w19,w0
  0000000180001DE0: B90013B3  str         w19,[fp,#0x10]
  0000000180001DE4: 340004B3  cbz         w19,0000000180001E78
  0000000180001DE8: AA1503E2  mov         x2,x21
  0000000180001DEC: 2A1403E1  mov         w1,w20
  0000000180001DF0: AA1603E0  mov         x0,x22
  0000000180001DF4: 97FFFCBD  bl          DllMain
  0000000180001DF8: 2A0003F3  mov         w19,w0
  0000000180001DFC: B90013B3  str         w19,[fp,#0x10]
  0000000180001E00: 7100069F  cmp         w20,#1
  0000000180001E04: 7A400A60  ccmpeq      w19,#0,#0
  0000000180001E08: 54000181  bne         0000000180001E38
  0000000180001E0C: AA1503E2  mov         x2,x21
  0000000180001E10: 52800001  mov         w1,#0
  0000000180001E14: AA1603E0  mov         x0,x22
  0000000180001E18: 97FFFCB4  bl          DllMain
  0000000180001E1C: F10002BF  cmp         x21,#0
  0000000180001E20: 1A9F07E0  csetne      w0
  0000000180001E24: 97FFFFA7  bl          0000000180001CC0
  0000000180001E28: AA1503E2  mov         x2,x21
  0000000180001E2C: 52800001  mov         w1,#0
  0000000180001E30: AA1603E0  mov         x0,x22
  0000000180001E34: 94000019  bl          0000000180001E98
  0000000180001E38: 7100029F  cmp         w20,#0
  0000000180001E3C: 7A431A84  ccmpne      w20,#3,#4
  0000000180001E40: 540001C1  bne         0000000180001E78
  0000000180001E44: AA1503E2  mov         x2,x21
  0000000180001E48: 2A1403E1  mov         w1,w20
  0000000180001E4C: AA1603E0  mov         x0,x22
  0000000180001E50: 97FFFF38  bl          0000000180001B30
  0000000180001E54: 2A0003F3  mov         w19,w0
  0000000180001E58: B90013B3  str         w19,[fp,#0x10]
  0000000180001E5C: 340000F3  cbz         w19,0000000180001E78
  0000000180001E60: AA1503E2  mov         x2,x21
  0000000180001E64: 2A1403E1  mov         w1,w20
  0000000180001E68: AA1603E0  mov         x0,x22
  0000000180001E6C: 9400000B  bl          0000000180001E98
  0000000180001E70: 2A0003F3  mov         w19,w0
  0000000180001E74: B90013B3  str         w19,[fp,#0x10]
  0000000180001E78: 14000003  b           0000000180001E84
  0000000180001E7C: 52800013  mov         w19,#0
  0000000180001E80: B90013BF  str         wzr,[fp,#0x10]
  0000000180001E84: 2A1303E0  mov         w0,w19
  0000000180001E88: A8C37BFD  ldp         fp,lr,[sp],#0x30
  0000000180001E8C: A9415BF5  ldp         x21,x22,[sp,#0x10]
  0000000180001E90: A8C253F3  ldp         x19,x20,[sp],#0x20
  0000000180001E94: D65F03C0  ret
dllmain_raw:
  0000000180001E98: A9BE53F3  stp         x19,x20,[sp,#-0x20]!
  0000000180001E9C: A9015BF5  stp         x21,x22,[sp,#0x10]
  0000000180001EA0: A9BF7BFD  stp         fp,lr,[sp,#-0x10]!
  0000000180001EA4: 910003FD  mov         fp,sp
  0000000180001EA8: D0000008  adrp        x8,__imp_CreateFileA
  0000000180001EAC: F940B113  ldr         x19,[x8,#0x160]
  0000000180001EB0: AA0003F4  mov         x20,x0
  0000000180001EB4: 2A0103F5  mov         w21,w1
  0000000180001EB8: AA0203F6  mov         x22,x2
  0000000180001EBC: B5000073  cbnz        x19,0000000180001EC8
  0000000180001EC0: 52800020  mov         w0,#1
  0000000180001EC4: 14000009  b           0000000180001EE8
  0000000180001EC8: D0000008  adrp        x8,__imp_CreateFileA
  0000000180001ECC: F9408908  ldr         x8,[x8,#0x110]
  0000000180001ED0: AA1303EF  mov         x15,x19
  0000000180001ED4: D63F0100  blr         x8
  0000000180001ED8: AA1603E2  mov         x2,x22
  0000000180001EDC: 2A1503E1  mov         w1,w21
  0000000180001EE0: AA1403E0  mov         x0,x20
  0000000180001EE4: D63F0260  blr         x19
  0000000180001EE8: A8C17BFD  ldp         fp,lr,[sp],#0x10
  0000000180001EEC: A9415BF5  ldp         x21,x22,[sp,#0x10]
  0000000180001EF0: A8C253F3  ldp         x19,x20,[sp],#0x20
  0000000180001EF4: D65F03C0  ret
_DllMainCRTStartup:
  0000000180001EF8: A9BE53F3  stp         x19,x20,[sp,#-0x20]!
  0000000180001EFC: F9000BF5  str         x21,[sp,#0x10]
  0000000180001F00: A9BF7BFD  stp         fp,lr,[sp,#-0x10]!
  0000000180001F04: 910003FD  mov         fp,sp
  0000000180001F08: 2A0103F3  mov         w19,w1
  0000000180001F0C: 7100067F  cmp         w19,#1
  0000000180001F10: AA0003F4  mov         x20,x0
  0000000180001F14: AA0203F5  mov         x21,x2
  0000000180001F18: 54000041  bne         0000000180001F20
  0000000180001F1C: 9400000F  bl          __security_init_cookie
  0000000180001F20: AA1503E2  mov         x2,x21
  0000000180001F24: 2A1303E1  mov         w1,w19
  0000000180001F28: AA1403E0  mov         x0,x20
  0000000180001F2C: 97FFFF8D  bl          0000000180001D60
  0000000180001F30: A8C17BFD  ldp         fp,lr,[sp],#0x10
  0000000180001F34: F9400BF5  ldr         x21,[sp,#0x10]
  0000000180001F38: A8C253F3  ldp         x19,x20,[sp],#0x20
  0000000180001F3C: D65F03C0  ret
__report_gsfailure:
  0000000180001F40: D10043FF  sub         sp,sp,#0x10
  0000000180001F44: F90003E0  str         x0,[sp]
  0000000180001F48: 52800040  mov         w0,#2
  0000000180001F4C: D43E0060  brk         #0xF003
  0000000180001F50: 910043FF  add         sp,sp,#0x10
  0000000180001F54: D65F03C0  ret
__security_init_cookie:
  0000000180001F58: A9BF53F3  stp         x19,x20,[sp,#-0x10]!
  0000000180001F5C: A9BD7BFD  stp         fp,lr,[sp,#-0x30]!
  0000000180001F60: 910003FD  mov         fp,sp
  0000000180001F64: F0000014  adrp        x20,__security_cookie
  0000000180001F68: F9400288  ldr         x8,[x20]
  0000000180001F6C: 58000673  ldr         x19,0000000180002038
  0000000180001F70: EB13011F  cmp         x8,x19
  0000000180001F74: 54000541  bne         000000018000201C
  0000000180001F78: D0000008  adrp        x8,__imp_CreateFileA
  0000000180001F7C: 91018108  add         x8,x8,#0x60
  0000000180001F80: F9000FFF  str         xzr,[sp,#0x18]
  0000000180001F84: C8DFFD09  ldar        x9,[x8]
  0000000180001F88: 910063E0  add         x0,sp,#0x18
  0000000180001F8C: D63F0120  blr         x9
  0000000180001F90: F9400FE8  ldr         x8,[sp,#0x18]
  0000000180001F94: D0000009  adrp        x9,__imp_CreateFileA
  0000000180001F98: 9101A129  add         x9,x9,#0x68
  0000000180001F9C: F9000BE8  str         x8,[sp,#0x10]
  0000000180001FA0: C8DFFD28  ldar        x8,[x9]
  0000000180001FA4: D63F0100  blr         x8
  0000000180001FA8: F9400BE8  ldr         x8,[sp,#0x10]
  0000000180001FAC: D3407C09  uxtw        x9,w0
  0000000180001FB0: CA080129  eor         x9,x9,x8
  0000000180001FB4: D0000008  adrp        x8,__imp_CreateFileA
  0000000180001FB8: 9101C108  add         x8,x8,#0x70
  0000000180001FBC: F9000BE9  str         x9,[sp,#0x10]
  0000000180001FC0: C8DFFD09  ldar        x9,[x8]
  0000000180001FC4: D63F0120  blr         x9
  0000000180001FC8: F9400BE8  ldr         x8,[sp,#0x10]
  0000000180001FCC: D3407C09  uxtw        x9,w0
  0000000180001FD0: 910083E0  add         x0,sp,#0x20
  0000000180001FD4: CA080129  eor         x9,x9,x8
  0000000180001FD8: D0000008  adrp        x8,__imp_CreateFileA
  0000000180001FDC: 9101E108  add         x8,x8,#0x78
  0000000180001FE0: F9000BE9  str         x9,[sp,#0x10]
  0000000180001FE4: C8DFFD09  ldar        x9,[x8]
  0000000180001FE8: D63F0120  blr         x9
  0000000180001FEC: B94023E9  ldr         w9,[sp,#0x20]
  0000000180001FF0: 910043EB  add         x11,sp,#0x10
  0000000180001FF4: F94013E8  ldr         x8,[sp,#0x20]
  0000000180001FF8: CA09810A  eor         x10,x8,x9,lsl #0x20
  0000000180001FFC: F9400BE9  ldr         x9,[sp,#0x10]
  0000000180002000: CA090148  eor         x8,x10,x9
  0000000180002004: CA0B0108  eor         x8,x8,x11
  0000000180002008: 9240BD09  and         x9,x8,#0xFFFFFFFFFFFF
  000000018000200C: EB13013F  cmp         x9,x19
  0000000180002010: 58000188  ldr         x8,0000000180002040
  0000000180002014: 9A890108  cseleq      x8,x8,x9
  0000000180002018: F9000288  str         x8,[x20]
  000000018000201C: AA2803E9  mvn         x9,x8
  0000000180002020: D0000008  adrp        x8,__security_cookie
  0000000180002024: F9000509  str         x9,[x8,#8]
  0000000180002028: A8C37BFD  ldp         fp,lr,[sp],#0x30
  000000018000202C: A8C153F3  ldp         x19,x20,[sp],#0x10
  0000000180002030: D65F03C0  ret
  0000000180002034: D503201F  nop
  0000000180002038: 2DDFA232  ldp         s18,s8,[xip1,#0xFC]!
  000000018000203C: 00002B99
  0000000180002040: 2DDFA233  ldp         s19,s8,[xip1,#0xFC]!
  0000000180002044: 00002B99
?__scrt_initialize_type_info@@YAXXZ:
  0000000180002048: D0000008  adrp        x8,__security_cookie
  000000018000204C: 91118100  add         x0,x8,#0x460
  0000000180002050: B0000009  adrp        x9,__imp_CreateFileA
  0000000180002054: 91016128  add         x8,x9,#0x58
  0000000180002058: C8DFFD09  ldar        x9,[x8]
  000000018000205C: D61F0120  br          x9
?__scrt_uninitialize_type_info@@YAXXZ:
  0000000180002060: D0000008  adrp        x8,__security_cookie
  0000000180002064: 91118100  add         x0,x8,#0x460
  0000000180002068: 14000176  b           __std_type_info_destroy_list
  000000018000206C: 00 00 00 00                                      ....
__local_stdio_printf_options:
  0000000180002070: D0000008  adrp        x8,__security_cookie
  0000000180002074: 9111C100  add         x0,x8,#0x470
  0000000180002078: D65F03C0  ret
  000000018000207C: 00 00 00 00                                      ....
__local_stdio_scanf_options:
  0000000180002080: D0000008  adrp        x8,__security_cookie
  0000000180002084: 9111E100  add         x0,x8,#0x478
  0000000180002088: D65F03C0  ret
  000000018000208C: 00 00 00 00                                      ....
__scrt_initialize_default_local_stdio_options:
  0000000180002090: A9BF7BFD  stp         fp,lr,[sp,#-0x10]!
  0000000180002094: 910003FD  mov         fp,sp
  0000000180002098: 97FFFFF6  bl          __local_stdio_printf_options
  000000018000209C: D2800489  mov         x9,#0x24
  00000001800020A0: F9400008  ldr         x8,[x0]
  00000001800020A4: AA090108  orr         x8,x8,x9
  00000001800020A8: F9000008  str         x8,[x0]
  00000001800020AC: 97FFFFF5  bl          __local_stdio_scanf_options
  00000001800020B0: F9400008  ldr         x8,[x0]
  00000001800020B4: B27F0109  orr         x9,x8,#2
  00000001800020B8: F9000009  str         x9,[x0]
  00000001800020BC: A8C17BFD  ldp         fp,lr,[sp],#0x10
  00000001800020C0: D65F03C0  ret
  00000001800020C4: 00 00 00 00                                      ....
__scrt_acquire_startup_lock:
  00000001800020C8: A9BF7BFD  stp         fp,lr,[sp,#-0x10]!
  00000001800020CC: 910003FD  mov         fp,sp
  00000001800020D0: 94000154  bl          __scrt_is_ucrt_dll_in_use
  00000001800020D4: 34000260  cbz         w0,0000000180002120
  00000001800020D8: AA1203E8  mov         x8,xpr
  00000001800020DC: D000000C  adrp        x12,__security_cookie
  00000001800020E0: 9112218A  add         x10,x12,#0x488
  00000001800020E4: F940050B  ldr         x11,[x8,#8]
  00000001800020E8: C85FFD48  ldaxr       x8,[x10]
  00000001800020EC: B5000168  cbnz        x8,0000000180002118
  00000001800020F0: C809FD4B  stlxr       w9,x11,[x10]
  00000001800020F4: 35FFFFA9  cbnz        w9,00000001800020E8
  00000001800020F8: 14000008  b           0000000180002118
  00000001800020FC: EB08017F  cmp         x11,x8
  0000000180002100: 54000160  beq         000000018000212C
  0000000180002104: 9112218A  add         x10,x12,#0x488
  0000000180002108: C85FFD48  ldaxr       x8,[x10]
  000000018000210C: B5000068  cbnz        x8,0000000180002118
  0000000180002110: C809FD4B  stlxr       w9,x11,[x10]
  0000000180002114: 35FFFFA9  cbnz        w9,0000000180002108
  0000000180002118: D5033BBF  dmb         ish
  000000018000211C: B5FFFF08  cbnz        x8,00000001800020FC
  0000000180002120: 52800000  mov         w0,#0
  0000000180002124: A8C17BFD  ldp         fp,lr,[sp],#0x10
  0000000180002128: D65F03C0  ret
  000000018000212C: 52800020  mov         w0,#1
  0000000180002130: 17FFFFFD  b           0000000180002124
  0000000180002134: 00 00 00 00                                      ....
__scrt_dllmain_after_initialize_c:
  0000000180002138: A9BF7BFD  stp         fp,lr,[sp,#-0x10]!
  000000018000213C: 910003FD  mov         fp,sp
  0000000180002140: 94000138  bl          __scrt_is_ucrt_dll_in_use
  0000000180002144: 34000060  cbz         w0,0000000180002150
  0000000180002148: 94000134  bl          __isa_available_init
  000000018000214C: 14000007  b           0000000180002168
  0000000180002150: 97FFFBE6  bl          DllMain
  0000000180002154: 94000147  bl          _configure_narrow_argv
  0000000180002158: 34000060  cbz         w0,0000000180002164
  000000018000215C: 52800000  mov         w0,#0
  0000000180002160: 14000003  b           000000018000216C
  0000000180002164: 94000146  bl          _initialize_narrow_environment
  0000000180002168: 52800020  mov         w0,#1
  000000018000216C: A8C17BFD  ldp         fp,lr,[sp],#0x10
  0000000180002170: D65F03C0  ret
  0000000180002174: 00 00 00 00                                      ....
__scrt_dllmain_before_initialize_c:
  0000000180002178: A9BF7BFD  stp         fp,lr,[sp,#-0x10]!
  000000018000217C: 910003FD  mov         fp,sp
  0000000180002180: 52800000  mov         w0,#0
  0000000180002184: 9400006D  bl          __scrt_initialize_onexit_tables
  0000000180002188: 53001C08  uxtb        w8,w0
  000000018000218C: 7100011F  cmp         w8,#0
  0000000180002190: 1A9F07E0  csetne      w0
  0000000180002194: A8C17BFD  ldp         fp,lr,[sp],#0x10
  0000000180002198: D65F03C0  ret
  000000018000219C: 00 00 00 00                                      ....
__scrt_dllmain_crt_thread_attach:
  00000001800021A0: A9BF7BFD  stp         fp,lr,[sp,#-0x10]!
  00000001800021A4: 910003FD  mov         fp,sp
  00000001800021A8: 97FFFBD0  bl          DllMain
  00000001800021AC: 53001C08  uxtb        w8,w0
  00000001800021B0: 35000068  cbnz        w8,00000001800021BC
  00000001800021B4: 52800000  mov         w0,#0
  00000001800021B8: 14000007  b           00000001800021D4
  00000001800021BC: 97FFFBCB  bl          DllMain
  00000001800021C0: 53001C08  uxtb        w8,w0
  00000001800021C4: 35000068  cbnz        w8,00000001800021D0
  00000001800021C8: 97FFFBC8  bl          DllMain
  00000001800021CC: 17FFFFFA  b           00000001800021B4
  00000001800021D0: 52800020  mov         w0,#1
  00000001800021D4: A8C17BFD  ldp         fp,lr,[sp],#0x10
  00000001800021D8: D65F03C0  ret
  00000001800021DC: 00 00 00 00                                      ....
__scrt_dllmain_crt_thread_detach:
  00000001800021E0: A9BF7BFD  stp         fp,lr,[sp,#-0x10]!
  00000001800021E4: 910003FD  mov         fp,sp
  00000001800021E8: 97FFFBC0  bl          DllMain
  00000001800021EC: 97FFFBBF  bl          DllMain
  00000001800021F0: 52800020  mov         w0,#1
  00000001800021F4: A8C17BFD  ldp         fp,lr,[sp],#0x10
  00000001800021F8: D65F03C0  ret
  00000001800021FC: 00 00 00 00                                      ....
__scrt_dllmain_exception_filter:
  0000000180002200: A9BD53F3  stp         x19,x20,[sp,#-0x30]!
  0000000180002204: A9015BF5  stp         x21,x22,[sp,#0x10]
  0000000180002208: A90263F7  stp         x23,x24,[sp,#0x20]
  000000018000220C: A9BF7BFD  stp         fp,lr,[sp,#-0x10]!
  0000000180002210: 910003FD  mov         fp,sp
  0000000180002214: AA0003F7  mov         x23,x0
  0000000180002218: 2A0103F3  mov         w19,w1
  000000018000221C: AA0203F8  mov         x24,x2
  0000000180002220: AA0303F6  mov         x22,x3
  0000000180002224: 2A0403F4  mov         w20,w4
  0000000180002228: AA0503F5  mov         x21,x5
  000000018000222C: 940000FD  bl          __scrt_is_ucrt_dll_in_use
  0000000180002230: 7100001F  cmp         w0,#0
  0000000180002234: 7A410A60  ccmpeq      w19,#1,#0
  0000000180002238: 54000121  bne         000000018000225C
  000000018000223C: B0000008  adrp        x8,__imp_CreateFileA
  0000000180002240: F9408908  ldr         x8,[x8,#0x110]
  0000000180002244: AA1603EF  mov         x15,x22
  0000000180002248: D63F0100  blr         x8
  000000018000224C: AA1803E2  mov         x2,x24
  0000000180002250: 52800001  mov         w1,#0
  0000000180002254: AA1703E0  mov         x0,x23
  0000000180002258: D63F02C0  blr         x22
  000000018000225C: AA1503E1  mov         x1,x21
  0000000180002260: 2A1403E0  mov         w0,w20
  0000000180002264: 94000100  bl          _seh_filter_dll
  0000000180002268: A8C17BFD  ldp         fp,lr,[sp],#0x10
  000000018000226C: A94263F7  ldp         x23,x24,[sp,#0x20]
  0000000180002270: A9415BF5  ldp         x21,x22,[sp,#0x10]
  0000000180002274: A8C353F3  ldp         x19,x20,[sp],#0x30
  0000000180002278: D65F03C0  ret
  000000018000227C: 00 00 00 00                                      ....
__scrt_dllmain_uninitialize_c:
  0000000180002280: A9BF7BFD  stp         fp,lr,[sp,#-0x10]!
  0000000180002284: 910003FD  mov         fp,sp
  0000000180002288: 940000E6  bl          __scrt_is_ucrt_dll_in_use
  000000018000228C: 340000A0  cbz         w0,00000001800022A0
  0000000180002290: D0000008  adrp        x8,__security_cookie
  0000000180002294: 91124100  add         x0,x8,#0x490
  0000000180002298: 940000FF  bl          _execute_onexit_table
  000000018000229C: 14000004  b           00000001800022AC
  00000001800022A0: 940000DE  bl          __isa_available_init
  00000001800022A4: 35000040  cbnz        w0,00000001800022AC
  00000001800022A8: 940000FE  bl          _cexit
  00000001800022AC: A8C17BFD  ldp         fp,lr,[sp],#0x10
  00000001800022B0: D65F03C0  ret
  00000001800022B4: 00 00 00 00                                      ....
__scrt_dllmain_uninitialize_critical:
  00000001800022B8: A9BF7BFD  stp         fp,lr,[sp,#-0x10]!
  00000001800022BC: 910003FD  mov         fp,sp
  00000001800022C0: 52800000  mov         w0,#0
  00000001800022C4: 97FFFB89  bl          DllMain
  00000001800022C8: 97FFFB88  bl          DllMain
  00000001800022CC: A8C17BFD  ldp         fp,lr,[sp],#0x10
  00000001800022D0: D65F03C0  ret
  00000001800022D4: 00 00 00 00                                      ....
__scrt_initialize_crt:
  00000001800022D8: A9BF7BFD  stp         fp,lr,[sp,#-0x10]!
  00000001800022DC: 910003FD  mov         fp,sp
  00000001800022E0: D000000A  adrp        x10,__security_cookie
  00000001800022E4: 39521148  ldrb        w8,[x10,#0x484]
  00000001800022E8: 7100001F  cmp         w0,#0
  00000001800022EC: 52800029  mov         w9,#1
  00000001800022F0: 1A880129  cseleq      w9,w9,w8
  00000001800022F4: 39121149  strb        w9,[x10,#0x484]
  00000001800022F8: 940000C8  bl          __isa_available_init
  00000001800022FC: 97FFFB7B  bl          DllMain
  0000000180002300: 53001C08  uxtb        w8,w0
  0000000180002304: 35000068  cbnz        w8,0000000180002310
  0000000180002308: 52800000  mov         w0,#0
  000000018000230C: 14000008  b           000000018000232C
  0000000180002310: 97FFFB76  bl          DllMain
  0000000180002314: 53001C08  uxtb        w8,w0
  0000000180002318: 35000088  cbnz        w8,0000000180002328
  000000018000231C: 52800000  mov         w0,#0
  0000000180002320: 97FFFB72  bl          DllMain
  0000000180002324: 17FFFFF9  b           0000000180002308
  0000000180002328: 52800020  mov         w0,#1
  000000018000232C: A8C17BFD  ldp         fp,lr,[sp],#0x10
  0000000180002330: D65F03C0  ret
  0000000180002334: 00 00 00 00                                      ....
__scrt_initialize_onexit_tables:
  0000000180002338: A9BF53F3  stp         x19,x20,[sp,#-0x10]!
  000000018000233C: A9BF7BFD  stp         fp,lr,[sp,#-0x10]!
  0000000180002340: 910003FD  mov         fp,sp
  0000000180002344: D0000014  adrp        x20,__security_cookie
  0000000180002348: 39530288  ldrb        w8,[x20,#0x4C0]
  000000018000234C: 2A0003F3  mov         w19,w0
  0000000180002350: 35000368  cbnz        w8,00000001800023BC
  0000000180002354: 7100067F  cmp         w19,#1
  0000000180002358: 540003A8  bhi         00000001800023CC
  000000018000235C: 940000B1  bl          __scrt_is_ucrt_dll_in_use
  0000000180002360: 34000180  cbz         w0,0000000180002390
  0000000180002364: 35000173  cbnz        w19,0000000180002390
  0000000180002368: D0000008  adrp        x8,__security_cookie
  000000018000236C: 91124100  add         x0,x8,#0x490
  0000000180002370: 940000C6  bl          _initialize_onexit_table
  0000000180002374: 350000A0  cbnz        w0,0000000180002388
  0000000180002378: D0000008  adrp        x8,__security_cookie
  000000018000237C: 9112A100  add         x0,x8,#0x4A8
  0000000180002380: 940000C2  bl          _initialize_onexit_table
  0000000180002384: 34000180  cbz         w0,00000001800023B4
  0000000180002388: 52800000  mov         w0,#0
  000000018000238C: 1400000D  b           00000001800023C0
  0000000180002390: D0000008  adrp        x8,__security_cookie
  0000000180002394: 91124108  add         x8,x8,#0x490
  0000000180002398: D0000009  adrp        x9,__security_cookie
  000000018000239C: 9112A129  add         x9,x9,#0x4A8
  00000001800023A0: 9280000A  mov         x10,#-1
  00000001800023A4: A900290A  stp         x10,x10,[x8]
  00000001800023A8: A900292A  stp         x10,x10,[x9]
  00000001800023AC: F900090A  str         x10,[x8,#0x10]
  00000001800023B0: F900092A  str         x10,[x9,#0x10]
  00000001800023B4: 52800028  mov         w8,#1
  00000001800023B8: 39130288  strb        w8,[x20,#0x4C0]
  00000001800023BC: 52800020  mov         w0,#1
  00000001800023C0: A8C17BFD  ldp         fp,lr,[sp],#0x10
  00000001800023C4: A8C153F3  ldp         x19,x20,[sp],#0x10
  00000001800023C8: D65F03C0  ret
  00000001800023CC: 528000A0  mov         w0,#5
  00000001800023D0: 9400005A  bl          __scrt_fastfail
  00000001800023D4: 00 00 00 00                                      ....
__scrt_is_nonwritable_in_current_image:
  00000001800023D8: A9BE7BFD  stp         fp,lr,[sp,#-0x20]!
  00000001800023DC: 910003FD  mov         fp,sp
  00000001800023E0: 528B49AA  mov         w10,#0x5A4D
  00000001800023E4: D0FFFFE8  adrp        x8,0000000180000000
  00000001800023E8: 91000109  add         x9,x8,#0
  00000001800023EC: 79400128  ldrh        w8,[x9]
  00000001800023F0: 6B0A011F  cmp         w8,w10
  00000001800023F4: 54000501  bne         0000000180002494
  00000001800023F8: B9403D2C  ldr         w12,[x9,#0x3C]
  00000001800023FC: 8B2CC12A  add         x10,x9,w12,sxtw #0
  0000000180002400: 5288AA0B  mov         w11,#0x4550
  0000000180002404: B9400148  ldr         w8,[x10]
  0000000180002408: 6B0B011F  cmp         w8,w11
  000000018000240C: 54000441  bne         0000000180002494
  0000000180002410: 79403148  ldrh        w8,[x10,#0x18]
  0000000180002414: 71082D1F  cmp         w8,#0x20B
  0000000180002418: 540003E1  bne         0000000180002494
  000000018000241C: CB09000B  sub         x11,x0,x9
  0000000180002420: 8B2CC129  add         x9,x9,w12,sxtw #0
  0000000180002424: 79402928  ldrh        w8,[x9,#0x14]
  0000000180002428: 8B090108  add         x8,x8,x9
  000000018000242C: 9100610A  add         x10,x8,#0x18
  0000000180002430: 79400D29  ldrh        w9,[x9,#6]
  0000000180002434: D2800508  mov         x8,#0x28
  0000000180002438: 9B08292C  madd        x12,x9,x8,x10
  000000018000243C: F9000BAA  str         x10,[fp,#0x10]
  0000000180002440: EB0C015F  cmp         x10,x12
  0000000180002444: 54000140  beq         000000018000246C
  0000000180002448: B9400D49  ldr         w9,[x10,#0xC]
  000000018000244C: EB29417F  cmp         x11,w9,uxtw #0
  0000000180002450: 540000A3  blo         0000000180002464
  0000000180002454: B9400948  ldr         w8,[x10,#8]
  0000000180002458: 0B090109  add         w9,w8,w9
  000000018000245C: EB29417F  cmp         x11,w9,uxtw #0
  0000000180002460: 54000083  blo         0000000180002470
  0000000180002464: 9100A14A  add         x10,x10,#0x28
  0000000180002468: 17FFFFF5  b           000000018000243C
  000000018000246C: D280000A  mov         x10,#0
  0000000180002470: B500006A  cbnz        x10,000000018000247C
  0000000180002474: 52800000  mov         w0,#0
  0000000180002478: 1400000A  b           00000001800024A0
  000000018000247C: B9402548  ldr         w8,[x10,#0x24]
  0000000180002480: 36F80068  tbz         x8,#0x1F,000000018000248C
  0000000180002484: 52800000  mov         w0,#0
  0000000180002488: 14000006  b           00000001800024A0
  000000018000248C: 52800020  mov         w0,#1
  0000000180002490: 14000004  b           00000001800024A0
  0000000180002494: 52800000  mov         w0,#0
  0000000180002498: 14000002  b           00000001800024A0
  000000018000249C: 52800000  mov         w0,#0
  00000001800024A0: A8C27BFD  ldp         fp,lr,[sp],#0x20
  00000001800024A4: D65F03C0  ret
__scrt_release_startup_lock:
  00000001800024A8: F81F0FF3  str         x19,[sp,#-0x10]!
  00000001800024AC: A9BF7BFD  stp         fp,lr,[sp,#-0x10]!
  00000001800024B0: 910003FD  mov         fp,sp
  00000001800024B4: 53001C13  uxtb        w19,w0
  00000001800024B8: 9400005A  bl          __scrt_is_ucrt_dll_in_use
  00000001800024BC: 340000C0  cbz         w0,00000001800024D4
  00000001800024C0: 350000B3  cbnz        w19,00000001800024D4
  00000001800024C4: D0000008  adrp        x8,__security_cookie
  00000001800024C8: 91122108  add         x8,x8,#0x488
  00000001800024CC: C89FFD1F  stlr        xzr,[x8]
  00000001800024D0: D5033BBF  dmb         ish
  00000001800024D4: A8C17BFD  ldp         fp,lr,[sp],#0x10
  00000001800024D8: F84107F3  ldr         x19,[sp],#0x10
  00000001800024DC: D65F03C0  ret
__scrt_uninitialize_crt:
  00000001800024E0: F81F0FF3  str         x19,[sp,#-0x10]!
  00000001800024E4: A9BF7BFD  stp         fp,lr,[sp,#-0x10]!
  00000001800024E8: 910003FD  mov         fp,sp
  00000001800024EC: D0000008  adrp        x8,__security_cookie
  00000001800024F0: 39521108  ldrb        w8,[x8,#0x484]
  00000001800024F4: 53001C13  uxtb        w19,w0
  00000001800024F8: 53001C29  uxtb        w9,w1
  00000001800024FC: 34000048  cbz         w8,0000000180002504
  0000000180002500: 350000A9  cbnz        w9,0000000180002514
  0000000180002504: 2A1303E0  mov         w0,w19
  0000000180002508: 97FFFAF8  bl          DllMain
  000000018000250C: 2A1303E0  mov         w0,w19
  0000000180002510: 97FFFAF6  bl          DllMain
  0000000180002514: 52800020  mov         w0,#1
  0000000180002518: A8C17BFD  ldp         fp,lr,[sp],#0x10
  000000018000251C: F84107F3  ldr         x19,[sp],#0x10
  0000000180002520: D65F03C0  ret
  0000000180002524: 00 00 00 00                                      ....
__scrt_get_dyn_tls_init_callback:
  0000000180002528: D0000008  adrp        x8,__security_cookie
  000000018000252C: 91136100  add         x0,x8,#0x4D8
  0000000180002530: D65F03C0  ret
  0000000180002534: 00 00 00 00                                      ....
__scrt_fastfail:
  0000000180002538: D43E0060  brk         #0xF003
  000000018000253C: D65F03C0  ret
_RTC_Initialize:
  0000000180002540: A9BE53F3  stp         x19,x20,[sp,#-0x20]!
  0000000180002544: A9015BF5  stp         x21,x22,[sp,#0x10]
  0000000180002548: A9BF7BFD  stp         fp,lr,[sp,#-0x10]!
  000000018000254C: 910003FD  mov         fp,sp
  0000000180002550: B0000008  adrp        x8,__imp_CreateFileA
  0000000180002554: 9118E108  add         x8,x8,#0x638
  0000000180002558: B0000009  adrp        x9,__imp_CreateFileA
  000000018000255C: 91190135  add         x21,x9,#0x640
  0000000180002560: 91002113  add         x19,x8,#8
  0000000180002564: 91002108  add         x8,x8,#8
  0000000180002568: EB15011F  cmp         x8,x21
  000000018000256C: 54000142  bhs         0000000180002594
  0000000180002570: B0000016  adrp        x22,__imp_CreateFileA
  0000000180002574: F8408674  ldr         x20,[x19],#8
  0000000180002578: B40000B4  cbz         x20,000000018000258C
  000000018000257C: F9408AC8  ldr         x8,[x22,#0x110]
  0000000180002580: AA1403EF  mov         x15,x20
  0000000180002584: D63F0100  blr         x8
  0000000180002588: D63F0280  blr         x20
  000000018000258C: EB15027F  cmp         x19,x21
  0000000180002590: 54FFFF23  blo         0000000180002574
  0000000180002594: A8C17BFD  ldp         fp,lr,[sp],#0x10
  0000000180002598: A9415BF5  ldp         x21,x22,[sp,#0x10]
  000000018000259C: A8C253F3  ldp         x19,x20,[sp],#0x20
  00000001800025A0: D65F03C0  ret
  00000001800025A4: 00 00 00 00                                      ....
_RTC_Terminate:
  00000001800025A8: A9BE53F3  stp         x19,x20,[sp,#-0x20]!
  00000001800025AC: A9015BF5  stp         x21,x22,[sp,#0x10]
  00000001800025B0: A9BF7BFD  stp         fp,lr,[sp,#-0x10]!
  00000001800025B4: 910003FD  mov         fp,sp
  00000001800025B8: B0000008  adrp        x8,__imp_CreateFileA
  00000001800025BC: 91192108  add         x8,x8,#0x648
  00000001800025C0: B0000009  adrp        x9,__imp_CreateFileA
  00000001800025C4: 91194135  add         x21,x9,#0x650
  00000001800025C8: 91002113  add         x19,x8,#8
  00000001800025CC: 91002108  add         x8,x8,#8
  00000001800025D0: EB15011F  cmp         x8,x21
  00000001800025D4: 54000142  bhs         00000001800025FC
  00000001800025D8: B0000016  adrp        x22,__imp_CreateFileA
  00000001800025DC: F8408674  ldr         x20,[x19],#8
  00000001800025E0: B40000B4  cbz         x20,00000001800025F4
  00000001800025E4: F9408AC8  ldr         x8,[x22,#0x110]
  00000001800025E8: AA1403EF  mov         x15,x20
  00000001800025EC: D63F0100  blr         x8
  00000001800025F0: D63F0280  blr         x20
  00000001800025F4: EB15027F  cmp         x19,x21
  00000001800025F8: 54FFFF23  blo         00000001800025DC
  00000001800025FC: A8C17BFD  ldp         fp,lr,[sp],#0x10
  0000000180002600: A9415BF5  ldp         x21,x22,[sp,#0x10]
  0000000180002604: A8C253F3  ldp         x19,x20,[sp],#0x20
  0000000180002608: D65F03C0  ret
  000000018000260C: 00 00 00 00                                      ....
_guard_check_icall_nop:
  0000000180002610: D65F03C0  ret
  0000000180002614: 00 00 00 00                                      ....
__isa_available_init:
  0000000180002618: 52800000  mov         w0,#0
  000000018000261C: D65F03C0  ret
__scrt_is_ucrt_dll_in_use:
  0000000180002620: D0000008  adrp        x8,__security_cookie
  0000000180002624: B9401508  ldr         w8,[x8,#0x14]
  0000000180002628: 7100011F  cmp         w8,#0
  000000018000262C: 1A9F07E0  csetne      w0
  0000000180002630: D65F03C0  ret
__C_specific_handler:
  0000000180002634: B0000010  adrp        xip0,__imp_CreateFileA
  0000000180002638: F9404A10  ldr         xip0,[xip0,#0x90]
  000000018000263C: D61F0200  br          xip0
__std_type_info_destroy_list:
  0000000180002640: B0000010  adrp        xip0,__imp_CreateFileA
  0000000180002644: F9404E10  ldr         xip0,[xip0,#0x98]
  0000000180002648: D61F0200  br          xip0
_initterm:
  000000018000264C: B0000010  adrp        xip0,__imp_CreateFileA
  0000000180002650: F9407610  ldr         xip0,[xip0,#0xE8]
  0000000180002654: D61F0200  br          xip0
_initterm_e:
  0000000180002658: B0000010  adrp        xip0,__imp_CreateFileA
  000000018000265C: F9407210  ldr         xip0,[xip0,#0xE0]
  0000000180002660: D61F0200  br          xip0
_seh_filter_dll:
  0000000180002664: B0000010  adrp        xip0,__imp_CreateFileA
  0000000180002668: F9406E10  ldr         xip0,[xip0,#0xD8]
  000000018000266C: D61F0200  br          xip0
_configure_narrow_argv:
  0000000180002670: B0000010  adrp        xip0,__imp_CreateFileA
  0000000180002674: F9406A10  ldr         xip0,[xip0,#0xD0]
  0000000180002678: D61F0200  br          xip0
_initialize_narrow_environment:
  000000018000267C: B0000010  adrp        xip0,__imp_CreateFileA
  0000000180002680: F9406610  ldr         xip0,[xip0,#0xC8]
  0000000180002684: D61F0200  br          xip0
_initialize_onexit_table:
  0000000180002688: B0000010  adrp        xip0,__imp_CreateFileA
  000000018000268C: F9406210  ldr         xip0,[xip0,#0xC0]
  0000000180002690: D61F0200  br          xip0
_execute_onexit_table:
  0000000180002694: B0000010  adrp        xip0,__imp_CreateFileA
  0000000180002698: F9405E10  ldr         xip0,[xip0,#0xB8]
  000000018000269C: D61F0200  br          xip0
_cexit:
  00000001800026A0: B0000010  adrp        xip0,__imp_CreateFileA
  00000001800026A4: F9405A10  ldr         xip0,[xip0,#0xB0]
  00000001800026A8: D61F0200  br          xip0
  00000001800026AC: 00 00 00 00                                      ....
__GSHandlerCheck:
  00000001800026B0: A9BF7BFD  stp         fp,lr,[sp,#-0x10]!
  00000001800026B4: 910003FD  mov         fp,sp
  00000001800026B8: F9401C68  ldr         x8,[x3,#0x38]
  00000001800026BC: B9400109  ldr         w9,[x8]
  00000001800026C0: 121E752B  and         w11,w9,#0xFFFFFFFC
  00000001800026C4: F86BC828  ldr         x8,[x1,w11 sxtw #0]
  00000001800026C8: 93407D6A  sxtw        x10,w11
  00000001800026CC: CB080149  sub         x9,x10,x8
  00000001800026D0: 8B01012A  add         x10,x9,x1
  00000001800026D4: D1002140  sub         x0,x10,#8
  00000001800026D8: 97FFFA4A  bl          __security_check_cookie
  00000001800026DC: 52800020  mov         w0,#1
  00000001800026E0: A8C17BFD  ldp         fp,lr,[sp],#0x10
  00000001800026E4: D65F03C0  ret
memcpy:
  00000001800026E8: B0000010  adrp        xip0,__imp_CreateFileA
  00000001800026EC: F9405210  ldr         xip0,[xip0,#0xA0]
  00000001800026F0: D61F0200  br          xip0
strcmp:
  00000001800026F4: B0000010  adrp        xip0,__imp_CreateFileA
  00000001800026F8: F9408210  ldr         xip0,[xip0,#0x100]
  00000001800026FC: D61F0200  br          xip0
`dllmain_crt_process_attach'::`1'::fin$0:
  0000000180002700: A9BF7BFD  stp         fp,lr,[sp,#-0x10]!
  0000000180002704: AA0103FD  mov         fp,x1
  0000000180002708: 394043A0  ldrb        w0,[fp,#0x10]
  000000018000270C: 97FFFF67  bl          __scrt_release_startup_lock
  0000000180002710: D503201F  nop
  0000000180002714: A8C17BFD  ldp         fp,lr,[sp],#0x10
  0000000180002718: D65F03C0  ret
  000000018000271C: D4000061  svc         #3
`dllmain_crt_process_detach'::`1'::fin$0:
  0000000180002720: A9BF7BFD  stp         fp,lr,[sp,#-0x10]!
  0000000180002724: AA0103FD  mov         fp,x1
  0000000180002728: 394043A0  ldrb        w0,[fp,#0x10]
  000000018000272C: 97FFFF5F  bl          __scrt_release_startup_lock
  0000000180002730: D503201F  nop
  0000000180002734: A8C17BFD  ldp         fp,lr,[sp],#0x10
  0000000180002738: D65F03C0  ret
  000000018000273C: D4000061  svc         #3
`dllmain_crt_process_detach'::`1'::fin$1:
  0000000180002740: A9BF7BFD  stp         fp,lr,[sp,#-0x10]!
  0000000180002744: AA0103FD  mov         fp,x1
  0000000180002748: 97FFFEDC  bl          __scrt_dllmain_uninitialize_critical
  000000018000274C: D503201F  nop
  0000000180002750: A8C17BFD  ldp         fp,lr,[sp],#0x10
  0000000180002754: D65F03C0  ret
  0000000180002758: D4000061  svc         #3
`dllmain_dispatch'::`1'::filt$0:
  000000018000275C: A9BF7BFD  stp         fp,lr,[sp,#-0x10]!
  0000000180002760: AA0103FD  mov         fp,x1
  0000000180002764: F9400008  ldr         x8,[x0]
  0000000180002768: B9400104  ldr         w4,[x8]
  000000018000276C: AA0003E5  mov         x5,x0
  0000000180002770: F0FFFFE8  adrp        x8,__security_check_cookie
  0000000180002774: 912CC103  add         x3,x8,#0xB30
  0000000180002778: F9400FA2  ldr         x2,[fp,#0x18]
  000000018000277C: B94017A1  ldr         w1,[fp,#0x14]
  0000000180002780: F94013A0  ldr         x0,[fp,#0x20]
  0000000180002784: 97FFFE9F  bl          __scrt_dllmain_exception_filter
  0000000180002788: D503201F  nop
  000000018000278C: A8C17BFD  ldp         fp,lr,[sp],#0x10
  0000000180002790: D65F03C0  ret
  0000000180002794: D4000061  svc         #3
__scrt_is_nonwritable_in_current_image$filt$0:
  0000000180002798: A9BF7BFD  stp         fp,lr,[sp,#-0x10]!
  000000018000279C: AA0103FD  mov         fp,x1
  00000001800027A0: F9400008  ldr         x8,[x0]
  00000001800027A4: B9400109  ldr         w9,[x8]
  00000001800027A8: 180000CA  ldr         w10,00000001800027C0
  00000001800027AC: 6B0A013F  cmp         w9,w10
  00000001800027B0: 1A9F17E0  cseteq      w0
  00000001800027B4: A8C17BFD  ldp         fp,lr,[sp],#0x10
  00000001800027B8: D65F03C0  ret
  00000001800027BC: D4000061  svc         #3
  00000001800027C0: C0000005

  Summary

        1000 .data
        1000 .pdata
        1000 .rdata
        1000 .reloc
        1000 .rsrc
        2000 .text
